

Microchip MPLAB XC8 Assembler V2.46 build 20240104201356 
                                                                                               Sun Jul 28 15:08:50 2024

Microchip MPLAB XC8 C Compiler v2.46 (Free license) build 20240104201356 Og1 
     1                           	processor	16F1939
     2                           	pagewidth 120
     3                           	opt	flic
     4                           	psect	cinit,global,class=CODE,merge=1,delta=2
     5                           	psect	bssCOMMON,global,class=COMMON,space=1,delta=1,noexec
     6                           	psect	bssBANK0,global,class=BANK0,space=1,delta=1,noexec
     7                           	psect	cstackCOMMON,global,class=COMMON,space=1,delta=1,noexec
     8                           	psect	cstackBANK0,global,class=BANK0,space=1,delta=1,noexec
     9                           	psect	maintext,global,class=CODE,merge=1,split=1,delta=2
    10                           	psect	text1,local,class=CODE,merge=1,delta=2
    11                           	psect	text2,local,class=CODE,merge=1,delta=2
    12                           	psect	text3,local,class=CODE,merge=1,delta=2
    13                           	psect	text4,local,class=CODE,merge=1,delta=2
    14                           	psect	text5,local,class=CODE,merge=1,delta=2
    15                           	psect	text6,local,class=CODE,merge=1,delta=2
    16                           	psect	intentry,global,class=CODE,delta=2
    17                           	psect	config,global,abs,ovrld,class=CONFIG,space=4,delta=2,noexec
    18                           	dabs	1,0x7E,2
    19     0000                     
    20                           ; Generated 07/09/2023 GMT
    21                           ; 
    22                           ; Copyright © 2023, Microchip Technology Inc. and its subsidiaries ("Microchip")
    23                           ; All rights reserved.
    24                           ; 
    25                           ; This software is developed by Microchip Technology Inc. and its subsidiaries ("Microch
      +                          ip").
    26                           ; 
    27                           ; Redistribution and use in source and binary forms, with or without modification, are
    28                           ; permitted provided that the following conditions are met:
    29                           ; 
    30                           ;     1. Redistributions of source code must retain the above copyright notice, this lis
      +                          t of
    31                           ;        conditions and the following disclaimer.
    32                           ; 
    33                           ;     2. Redistributions in binary form must reproduce the above copyright notice, this 
      +                          list
    34                           ;        of conditions and the following disclaimer in the documentation and/or other
    35                           ;        materials provided with the distribution. Publication is not required when
    36                           ;        this file is used in an embedded application.
    37                           ; 
    38                           ;     3. Microchip's name may not be used to endorse or promote products derived from th
      +                          is
    39                           ;        software without specific prior written permission.
    40                           ; 
    41                           ; THIS SOFTWARE IS PROVIDED BY MICROCHIP "AS IS" AND ANY EXPRESS OR IMPLIED WARRANTIES,
    42                           ; INCLUDING, BUT NOT LIMITED TO, THE IMPLIED WARRANTIES OF MERCHANTABILITY AND FITNESS F
      +                          OR
    43                           ; PURPOSE ARE DISCLAIMED.  IN NO EVENT SHALL MICROCHIP BE LIABLE FOR ANY DIRECT, INDIREC
      +                          T,
    44                           ; INCIDENTAL, SPECIAL, EXEMPLARY, OR CONSEQUENTIAL DAMAGES (INCLUDING BUT NOT LIMITED TO
    45                           ; PROCUREMENT OF SUBSTITUTE GOODS OR SERVICES; LOSS OF USE, DATA OR PROFITS; OR BUSINESS
    46                           ; INTERRUPTION) HOWSOEVER CAUSED AND ON ANY THEORY OF LIABILITY, WHETHER IN CONTRACT, ST
      +                          RICT
    47                           ; LIABILITY, OR TORT (INCLUDING NEGLIGENCE OR OTHERWISE) ARISING IN ANY WAY OUT OF THE U
      +                          SE OF
    48                           ; THIS SOFTWARE, EVEN IF ADVISED OF THE POSSIBILITY OF SUCH DAMAGE.
    49                           ; 
    50                           ; 
    51                           ; Code-generator required, PIC16F1939 Definitions
    52                           ; 
    53                           ; SFR Addresses
    54     0000                     	;# 
    55     0001                     	;# 
    56     0002                     	;# 
    57     0003                     	;# 
    58     0004                     	;# 
    59     0005                     	;# 
    60     0006                     	;# 
    61     0007                     	;# 
    62     0008                     	;# 
    63     0009                     	;# 
    64     000A                     	;# 
    65     000B                     	;# 
    66     000C                     	;# 
    67     000D                     	;# 
    68     000E                     	;# 
    69     000F                     	;# 
    70     0010                     	;# 
    71     0011                     	;# 
    72     0012                     	;# 
    73     0013                     	;# 
    74     0015                     	;# 
    75     0016                     	;# 
    76     0016                     	;# 
    77     0017                     	;# 
    78     0018                     	;# 
    79     0019                     	;# 
    80     001A                     	;# 
    81     001B                     	;# 
    82     001C                     	;# 
    83     001E                     	;# 
    84     001F                     	;# 
    85     008C                     	;# 
    86     008D                     	;# 
    87     008E                     	;# 
    88     008F                     	;# 
    89     0090                     	;# 
    90     0091                     	;# 
    91     0092                     	;# 
    92     0093                     	;# 
    93     0095                     	;# 
    94     0096                     	;# 
    95     0097                     	;# 
    96     0098                     	;# 
    97     0099                     	;# 
    98     009A                     	;# 
    99     009B                     	;# 
   100     009B                     	;# 
   101     009C                     	;# 
   102     009D                     	;# 
   103     009E                     	;# 
   104     010C                     	;# 
   105     010D                     	;# 
   106     010E                     	;# 
   107     010F                     	;# 
   108     0110                     	;# 
   109     0111                     	;# 
   110     0112                     	;# 
   111     0113                     	;# 
   112     0114                     	;# 
   113     0115                     	;# 
   114     0116                     	;# 
   115     0117                     	;# 
   116     0118                     	;# 
   117     0119                     	;# 
   118     011A                     	;# 
   119     011B                     	;# 
   120     011D                     	;# 
   121     018C                     	;# 
   122     018D                     	;# 
   123     018F                     	;# 
   124     0190                     	;# 
   125     0191                     	;# 
   126     0191                     	;# 
   127     0192                     	;# 
   128     0193                     	;# 
   129     0193                     	;# 
   130     0193                     	;# 
   131     0194                     	;# 
   132     0195                     	;# 
   133     0196                     	;# 
   134     0199                     	;# 
   135     019A                     	;# 
   136     019B                     	;# 
   137     019B                     	;# 
   138     019B                     	;# 
   139     019B                     	;# 
   140     019C                     	;# 
   141     019C                     	;# 
   142     019D                     	;# 
   143     019E                     	;# 
   144     019F                     	;# 
   145     020D                     	;# 
   146     0210                     	;# 
   147     0211                     	;# 
   148     0212                     	;# 
   149     0213                     	;# 
   150     0214                     	;# 
   151     0215                     	;# 
   152     0215                     	;# 
   153     0216                     	;# 
   154     0217                     	;# 
   155     0291                     	;# 
   156     0291                     	;# 
   157     0292                     	;# 
   158     0293                     	;# 
   159     0294                     	;# 
   160     0295                     	;# 
   161     0295                     	;# 
   162     0296                     	;# 
   163     0298                     	;# 
   164     0298                     	;# 
   165     0299                     	;# 
   166     029A                     	;# 
   167     029B                     	;# 
   168     029C                     	;# 
   169     029C                     	;# 
   170     029D                     	;# 
   171     029E                     	;# 
   172     029F                     	;# 
   173     0311                     	;# 
   174     0311                     	;# 
   175     0312                     	;# 
   176     0313                     	;# 
   177     0314                     	;# 
   178     0315                     	;# 
   179     0315                     	;# 
   180     0316                     	;# 
   181     0318                     	;# 
   182     0318                     	;# 
   183     0319                     	;# 
   184     031A                     	;# 
   185     031C                     	;# 
   186     031C                     	;# 
   187     031D                     	;# 
   188     031E                     	;# 
   189     0394                     	;# 
   190     0395                     	;# 
   191     0396                     	;# 
   192     0415                     	;# 
   193     0416                     	;# 
   194     0417                     	;# 
   195     041C                     	;# 
   196     041D                     	;# 
   197     041E                     	;# 
   198     0791                     	;# 
   199     0792                     	;# 
   200     0793                     	;# 
   201     0794                     	;# 
   202     0795                     	;# 
   203     0798                     	;# 
   204     0799                     	;# 
   205     079A                     	;# 
   206     07A0                     	;# 
   207     07A1                     	;# 
   208     07A2                     	;# 
   209     07A3                     	;# 
   210     07A4                     	;# 
   211     07A5                     	;# 
   212     07A6                     	;# 
   213     07A7                     	;# 
   214     07A8                     	;# 
   215     07A9                     	;# 
   216     07AA                     	;# 
   217     07AB                     	;# 
   218     0FE4                     	;# 
   219     0FE5                     	;# 
   220     0FE6                     	;# 
   221     0FE7                     	;# 
   222     0FE8                     	;# 
   223     0FE9                     	;# 
   224     0FEA                     	;# 
   225     0FEB                     	;# 
   226     0FED                     	;# 
   227     0FEE                     	;# 
   228     0FEF                     	;# 
   229     0000                     	;# 
   230     0001                     	;# 
   231     0002                     	;# 
   232     0003                     	;# 
   233     0004                     	;# 
   234     0005                     	;# 
   235     0006                     	;# 
   236     0007                     	;# 
   237     0008                     	;# 
   238     0009                     	;# 
   239     000A                     	;# 
   240     000B                     	;# 
   241     000C                     	;# 
   242     000D                     	;# 
   243     000E                     	;# 
   244     000F                     	;# 
   245     0010                     	;# 
   246     0011                     	;# 
   247     0012                     	;# 
   248     0013                     	;# 
   249     0015                     	;# 
   250     0016                     	;# 
   251     0016                     	;# 
   252     0017                     	;# 
   253     0018                     	;# 
   254     0019                     	;# 
   255     001A                     	;# 
   256     001B                     	;# 
   257     001C                     	;# 
   258     001E                     	;# 
   259     001F                     	;# 
   260     008C                     	;# 
   261     008D                     	;# 
   262     008E                     	;# 
   263     008F                     	;# 
   264     0090                     	;# 
   265     0091                     	;# 
   266     0092                     	;# 
   267     0093                     	;# 
   268     0095                     	;# 
   269     0096                     	;# 
   270     0097                     	;# 
   271     0098                     	;# 
   272     0099                     	;# 
   273     009A                     	;# 
   274     009B                     	;# 
   275     009B                     	;# 
   276     009C                     	;# 
   277     009D                     	;# 
   278     009E                     	;# 
   279     010C                     	;# 
   280     010D                     	;# 
   281     010E                     	;# 
   282     010F                     	;# 
   283     0110                     	;# 
   284     0111                     	;# 
   285     0112                     	;# 
   286     0113                     	;# 
   287     0114                     	;# 
   288     0115                     	;# 
   289     0116                     	;# 
   290     0117                     	;# 
   291     0118                     	;# 
   292     0119                     	;# 
   293     011A                     	;# 
   294     011B                     	;# 
   295     011D                     	;# 
   296     018C                     	;# 
   297     018D                     	;# 
   298     018F                     	;# 
   299     0190                     	;# 
   300     0191                     	;# 
   301     0191                     	;# 
   302     0192                     	;# 
   303     0193                     	;# 
   304     0193                     	;# 
   305     0193                     	;# 
   306     0194                     	;# 
   307     0195                     	;# 
   308     0196                     	;# 
   309     0199                     	;# 
   310     019A                     	;# 
   311     019B                     	;# 
   312     019B                     	;# 
   313     019B                     	;# 
   314     019B                     	;# 
   315     019C                     	;# 
   316     019C                     	;# 
   317     019D                     	;# 
   318     019E                     	;# 
   319     019F                     	;# 
   320     020D                     	;# 
   321     0210                     	;# 
   322     0211                     	;# 
   323     0212                     	;# 
   324     0213                     	;# 
   325     0214                     	;# 
   326     0215                     	;# 
   327     0215                     	;# 
   328     0216                     	;# 
   329     0217                     	;# 
   330     0291                     	;# 
   331     0291                     	;# 
   332     0292                     	;# 
   333     0293                     	;# 
   334     0294                     	;# 
   335     0295                     	;# 
   336     0295                     	;# 
   337     0296                     	;# 
   338     0298                     	;# 
   339     0298                     	;# 
   340     0299                     	;# 
   341     029A                     	;# 
   342     029B                     	;# 
   343     029C                     	;# 
   344     029C                     	;# 
   345     029D                     	;# 
   346     029E                     	;# 
   347     029F                     	;# 
   348     0311                     	;# 
   349     0311                     	;# 
   350     0312                     	;# 
   351     0313                     	;# 
   352     0314                     	;# 
   353     0315                     	;# 
   354     0315                     	;# 
   355     0316                     	;# 
   356     0318                     	;# 
   357     0318                     	;# 
   358     0319                     	;# 
   359     031A                     	;# 
   360     031C                     	;# 
   361     031C                     	;# 
   362     031D                     	;# 
   363     031E                     	;# 
   364     0394                     	;# 
   365     0395                     	;# 
   366     0396                     	;# 
   367     0415                     	;# 
   368     0416                     	;# 
   369     0417                     	;# 
   370     041C                     	;# 
   371     041D                     	;# 
   372     041E                     	;# 
   373     0791                     	;# 
   374     0792                     	;# 
   375     0793                     	;# 
   376     0794                     	;# 
   377     0795                     	;# 
   378     0798                     	;# 
   379     0799                     	;# 
   380     079A                     	;# 
   381     07A0                     	;# 
   382     07A1                     	;# 
   383     07A2                     	;# 
   384     07A3                     	;# 
   385     07A4                     	;# 
   386     07A5                     	;# 
   387     07A6                     	;# 
   388     07A7                     	;# 
   389     07A8                     	;# 
   390     07A9                     	;# 
   391     07AA                     	;# 
   392     07AB                     	;# 
   393     0FE4                     	;# 
   394     0FE5                     	;# 
   395     0FE6                     	;# 
   396     0FE7                     	;# 
   397     0FE8                     	;# 
   398     0FE9                     	;# 
   399     0FEA                     	;# 
   400     0FEB                     	;# 
   401     0FED                     	;# 
   402     0FEE                     	;# 
   403     0FEF                     	;# 
   404     0000                     	;# 
   405     0001                     	;# 
   406     0002                     	;# 
   407     0003                     	;# 
   408     0004                     	;# 
   409     0005                     	;# 
   410     0006                     	;# 
   411     0007                     	;# 
   412     0008                     	;# 
   413     0009                     	;# 
   414     000A                     	;# 
   415     000B                     	;# 
   416     000C                     	;# 
   417     000D                     	;# 
   418     000E                     	;# 
   419     000F                     	;# 
   420     0010                     	;# 
   421     0011                     	;# 
   422     0012                     	;# 
   423     0013                     	;# 
   424     0015                     	;# 
   425     0016                     	;# 
   426     0016                     	;# 
   427     0017                     	;# 
   428     0018                     	;# 
   429     0019                     	;# 
   430     001A                     	;# 
   431     001B                     	;# 
   432     001C                     	;# 
   433     001E                     	;# 
   434     001F                     	;# 
   435     008C                     	;# 
   436     008D                     	;# 
   437     008E                     	;# 
   438     008F                     	;# 
   439     0090                     	;# 
   440     0091                     	;# 
   441     0092                     	;# 
   442     0093                     	;# 
   443     0095                     	;# 
   444     0096                     	;# 
   445     0097                     	;# 
   446     0098                     	;# 
   447     0099                     	;# 
   448     009A                     	;# 
   449     009B                     	;# 
   450     009B                     	;# 
   451     009C                     	;# 
   452     009D                     	;# 
   453     009E                     	;# 
   454     010C                     	;# 
   455     010D                     	;# 
   456     010E                     	;# 
   457     010F                     	;# 
   458     0110                     	;# 
   459     0111                     	;# 
   460     0112                     	;# 
   461     0113                     	;# 
   462     0114                     	;# 
   463     0115                     	;# 
   464     0116                     	;# 
   465     0117                     	;# 
   466     0118                     	;# 
   467     0119                     	;# 
   468     011A                     	;# 
   469     011B                     	;# 
   470     011D                     	;# 
   471     018C                     	;# 
   472     018D                     	;# 
   473     018F                     	;# 
   474     0190                     	;# 
   475     0191                     	;# 
   476     0191                     	;# 
   477     0192                     	;# 
   478     0193                     	;# 
   479     0193                     	;# 
   480     0193                     	;# 
   481     0194                     	;# 
   482     0195                     	;# 
   483     0196                     	;# 
   484     0199                     	;# 
   485     019A                     	;# 
   486     019B                     	;# 
   487     019B                     	;# 
   488     019B                     	;# 
   489     019B                     	;# 
   490     019C                     	;# 
   491     019C                     	;# 
   492     019D                     	;# 
   493     019E                     	;# 
   494     019F                     	;# 
   495     020D                     	;# 
   496     0210                     	;# 
   497     0211                     	;# 
   498     0212                     	;# 
   499     0213                     	;# 
   500     0214                     	;# 
   501     0215                     	;# 
   502     0215                     	;# 
   503     0216                     	;# 
   504     0217                     	;# 
   505     0291                     	;# 
   506     0291                     	;# 
   507     0292                     	;# 
   508     0293                     	;# 
   509     0294                     	;# 
   510     0295                     	;# 
   511     0295                     	;# 
   512     0296                     	;# 
   513     0298                     	;# 
   514     0298                     	;# 
   515     0299                     	;# 
   516     029A                     	;# 
   517     029B                     	;# 
   518     029C                     	;# 
   519     029C                     	;# 
   520     029D                     	;# 
   521     029E                     	;# 
   522     029F                     	;# 
   523     0311                     	;# 
   524     0311                     	;# 
   525     0312                     	;# 
   526     0313                     	;# 
   527     0314                     	;# 
   528     0315                     	;# 
   529     0315                     	;# 
   530     0316                     	;# 
   531     0318                     	;# 
   532     0318                     	;# 
   533     0319                     	;# 
   534     031A                     	;# 
   535     031C                     	;# 
   536     031C                     	;# 
   537     031D                     	;# 
   538     031E                     	;# 
   539     0394                     	;# 
   540     0395                     	;# 
   541     0396                     	;# 
   542     0415                     	;# 
   543     0416                     	;# 
   544     0417                     	;# 
   545     041C                     	;# 
   546     041D                     	;# 
   547     041E                     	;# 
   548     0791                     	;# 
   549     0792                     	;# 
   550     0793                     	;# 
   551     0794                     	;# 
   552     0795                     	;# 
   553     0798                     	;# 
   554     0799                     	;# 
   555     079A                     	;# 
   556     07A0                     	;# 
   557     07A1                     	;# 
   558     07A2                     	;# 
   559     07A3                     	;# 
   560     07A4                     	;# 
   561     07A5                     	;# 
   562     07A6                     	;# 
   563     07A7                     	;# 
   564     07A8                     	;# 
   565     07A9                     	;# 
   566     07AA                     	;# 
   567     07AB                     	;# 
   568     0FE4                     	;# 
   569     0FE5                     	;# 
   570     0FE6                     	;# 
   571     0FE7                     	;# 
   572     0FE8                     	;# 
   573     0FE9                     	;# 
   574     0FEA                     	;# 
   575     0FEB                     	;# 
   576     0FED                     	;# 
   577     0FEE                     	;# 
   578     0FEF                     	;# 
   579     0000                     	;# 
   580     0001                     	;# 
   581     0002                     	;# 
   582     0003                     	;# 
   583     0004                     	;# 
   584     0005                     	;# 
   585     0006                     	;# 
   586     0007                     	;# 
   587     0008                     	;# 
   588     0009                     	;# 
   589     000A                     	;# 
   590     000B                     	;# 
   591     000C                     	;# 
   592     000D                     	;# 
   593     000E                     	;# 
   594     000F                     	;# 
   595     0010                     	;# 
   596     0011                     	;# 
   597     0012                     	;# 
   598     0013                     	;# 
   599     0015                     	;# 
   600     0016                     	;# 
   601     0016                     	;# 
   602     0017                     	;# 
   603     0018                     	;# 
   604     0019                     	;# 
   605     001A                     	;# 
   606     001B                     	;# 
   607     001C                     	;# 
   608     001E                     	;# 
   609     001F                     	;# 
   610     008C                     	;# 
   611     008D                     	;# 
   612     008E                     	;# 
   613     008F                     	;# 
   614     0090                     	;# 
   615     0091                     	;# 
   616     0092                     	;# 
   617     0093                     	;# 
   618     0095                     	;# 
   619     0096                     	;# 
   620     0097                     	;# 
   621     0098                     	;# 
   622     0099                     	;# 
   623     009A                     	;# 
   624     009B                     	;# 
   625     009B                     	;# 
   626     009C                     	;# 
   627     009D                     	;# 
   628     009E                     	;# 
   629     010C                     	;# 
   630     010D                     	;# 
   631     010E                     	;# 
   632     010F                     	;# 
   633     0110                     	;# 
   634     0111                     	;# 
   635     0112                     	;# 
   636     0113                     	;# 
   637     0114                     	;# 
   638     0115                     	;# 
   639     0116                     	;# 
   640     0117                     	;# 
   641     0118                     	;# 
   642     0119                     	;# 
   643     011A                     	;# 
   644     011B                     	;# 
   645     011D                     	;# 
   646     018C                     	;# 
   647     018D                     	;# 
   648     018F                     	;# 
   649     0190                     	;# 
   650     0191                     	;# 
   651     0191                     	;# 
   652     0192                     	;# 
   653     0193                     	;# 
   654     0193                     	;# 
   655     0193                     	;# 
   656     0194                     	;# 
   657     0195                     	;# 
   658     0196                     	;# 
   659     0199                     	;# 
   660     019A                     	;# 
   661     019B                     	;# 
   662     019B                     	;# 
   663     019B                     	;# 
   664     019B                     	;# 
   665     019C                     	;# 
   666     019C                     	;# 
   667     019D                     	;# 
   668     019E                     	;# 
   669     019F                     	;# 
   670     020D                     	;# 
   671     0210                     	;# 
   672     0211                     	;# 
   673     0212                     	;# 
   674     0213                     	;# 
   675     0214                     	;# 
   676     0215                     	;# 
   677     0215                     	;# 
   678     0216                     	;# 
   679     0217                     	;# 
   680     0291                     	;# 
   681     0291                     	;# 
   682     0292                     	;# 
   683     0293                     	;# 
   684     0294                     	;# 
   685     0295                     	;# 
   686     0295                     	;# 
   687     0296                     	;# 
   688     0298                     	;# 
   689     0298                     	;# 
   690     0299                     	;# 
   691     029A                     	;# 
   692     029B                     	;# 
   693     029C                     	;# 
   694     029C                     	;# 
   695     029D                     	;# 
   696     029E                     	;# 
   697     029F                     	;# 
   698     0311                     	;# 
   699     0311                     	;# 
   700     0312                     	;# 
   701     0313                     	;# 
   702     0314                     	;# 
   703     0315                     	;# 
   704     0315                     	;# 
   705     0316                     	;# 
   706     0318                     	;# 
   707     0318                     	;# 
   708     0319                     	;# 
   709     031A                     	;# 
   710     031C                     	;# 
   711     031C                     	;# 
   712     031D                     	;# 
   713     031E                     	;# 
   714     0394                     	;# 
   715     0395                     	;# 
   716     0396                     	;# 
   717     0415                     	;# 
   718     0416                     	;# 
   719     0417                     	;# 
   720     041C                     	;# 
   721     041D                     	;# 
   722     041E                     	;# 
   723     0791                     	;# 
   724     0792                     	;# 
   725     0793                     	;# 
   726     0794                     	;# 
   727     0795                     	;# 
   728     0798                     	;# 
   729     0799                     	;# 
   730     079A                     	;# 
   731     07A0                     	;# 
   732     07A1                     	;# 
   733     07A2                     	;# 
   734     07A3                     	;# 
   735     07A4                     	;# 
   736     07A5                     	;# 
   737     07A6                     	;# 
   738     07A7                     	;# 
   739     07A8                     	;# 
   740     07A9                     	;# 
   741     07AA                     	;# 
   742     07AB                     	;# 
   743     0FE4                     	;# 
   744     0FE5                     	;# 
   745     0FE6                     	;# 
   746     0FE7                     	;# 
   747     0FE8                     	;# 
   748     0FE9                     	;# 
   749     0FEA                     	;# 
   750     0FEB                     	;# 
   751     0FED                     	;# 
   752     0FEE                     	;# 
   753     0FEF                     	;# 
   754     0000                     	;# 
   755     0001                     	;# 
   756     0002                     	;# 
   757     0003                     	;# 
   758     0004                     	;# 
   759     0005                     	;# 
   760     0006                     	;# 
   761     0007                     	;# 
   762     0008                     	;# 
   763     0009                     	;# 
   764     000A                     	;# 
   765     000B                     	;# 
   766     000C                     	;# 
   767     000D                     	;# 
   768     000E                     	;# 
   769     000F                     	;# 
   770     0010                     	;# 
   771     0011                     	;# 
   772     0012                     	;# 
   773     0013                     	;# 
   774     0015                     	;# 
   775     0016                     	;# 
   776     0016                     	;# 
   777     0017                     	;# 
   778     0018                     	;# 
   779     0019                     	;# 
   780     001A                     	;# 
   781     001B                     	;# 
   782     001C                     	;# 
   783     001E                     	;# 
   784     001F                     	;# 
   785     008C                     	;# 
   786     008D                     	;# 
   787     008E                     	;# 
   788     008F                     	;# 
   789     0090                     	;# 
   790     0091                     	;# 
   791     0092                     	;# 
   792     0093                     	;# 
   793     0095                     	;# 
   794     0096                     	;# 
   795     0097                     	;# 
   796     0098                     	;# 
   797     0099                     	;# 
   798     009A                     	;# 
   799     009B                     	;# 
   800     009B                     	;# 
   801     009C                     	;# 
   802     009D                     	;# 
   803     009E                     	;# 
   804     010C                     	;# 
   805     010D                     	;# 
   806     010E                     	;# 
   807     010F                     	;# 
   808     0110                     	;# 
   809     0111                     	;# 
   810     0112                     	;# 
   811     0113                     	;# 
   812     0114                     	;# 
   813     0115                     	;# 
   814     0116                     	;# 
   815     0117                     	;# 
   816     0118                     	;# 
   817     0119                     	;# 
   818     011A                     	;# 
   819     011B                     	;# 
   820     011D                     	;# 
   821     018C                     	;# 
   822     018D                     	;# 
   823     018F                     	;# 
   824     0190                     	;# 
   825     0191                     	;# 
   826     0191                     	;# 
   827     0192                     	;# 
   828     0193                     	;# 
   829     0193                     	;# 
   830     0193                     	;# 
   831     0194                     	;# 
   832     0195                     	;# 
   833     0196                     	;# 
   834     0199                     	;# 
   835     019A                     	;# 
   836     019B                     	;# 
   837     019B                     	;# 
   838     019B                     	;# 
   839     019B                     	;# 
   840     019C                     	;# 
   841     019C                     	;# 
   842     019D                     	;# 
   843     019E                     	;# 
   844     019F                     	;# 
   845     020D                     	;# 
   846     0210                     	;# 
   847     0211                     	;# 
   848     0212                     	;# 
   849     0213                     	;# 
   850     0214                     	;# 
   851     0215                     	;# 
   852     0215                     	;# 
   853     0216                     	;# 
   854     0217                     	;# 
   855     0291                     	;# 
   856     0291                     	;# 
   857     0292                     	;# 
   858     0293                     	;# 
   859     0294                     	;# 
   860     0295                     	;# 
   861     0295                     	;# 
   862     0296                     	;# 
   863     0298                     	;# 
   864     0298                     	;# 
   865     0299                     	;# 
   866     029A                     	;# 
   867     029B                     	;# 
   868     029C                     	;# 
   869     029C                     	;# 
   870     029D                     	;# 
   871     029E                     	;# 
   872     029F                     	;# 
   873     0311                     	;# 
   874     0311                     	;# 
   875     0312                     	;# 
   876     0313                     	;# 
   877     0314                     	;# 
   878     0315                     	;# 
   879     0315                     	;# 
   880     0316                     	;# 
   881     0318                     	;# 
   882     0318                     	;# 
   883     0319                     	;# 
   884     031A                     	;# 
   885     031C                     	;# 
   886     031C                     	;# 
   887     031D                     	;# 
   888     031E                     	;# 
   889     0394                     	;# 
   890     0395                     	;# 
   891     0396                     	;# 
   892     0415                     	;# 
   893     0416                     	;# 
   894     0417                     	;# 
   895     041C                     	;# 
   896     041D                     	;# 
   897     041E                     	;# 
   898     0791                     	;# 
   899     0792                     	;# 
   900     0793                     	;# 
   901     0794                     	;# 
   902     0795                     	;# 
   903     0798                     	;# 
   904     0799                     	;# 
   905     079A                     	;# 
   906     07A0                     	;# 
   907     07A1                     	;# 
   908     07A2                     	;# 
   909     07A3                     	;# 
   910     07A4                     	;# 
   911     07A5                     	;# 
   912     07A6                     	;# 
   913     07A7                     	;# 
   914     07A8                     	;# 
   915     07A9                     	;# 
   916     07AA                     	;# 
   917     07AB                     	;# 
   918     0FE4                     	;# 
   919     0FE5                     	;# 
   920     0FE6                     	;# 
   921     0FE7                     	;# 
   922     0FE8                     	;# 
   923     0FE9                     	;# 
   924     0FEA                     	;# 
   925     0FEB                     	;# 
   926     0FED                     	;# 
   927     0FEE                     	;# 
   928     0FEF                     	;# 
   929                           
   930 ;; Function _I2C_Isr is unused but had its address taken
   931     0000                     
   932 ;; Function _I2C_SlaveDefRdInterruptHandler is unused but had its address taken
   933     0000                     
   934 ;; Function _I2C_SlaveDefWrInterruptHandler is unused but had its address taken
   935     0000                     
   936 ;; Function _I2C_SlaveDefAddrInterruptHandler is unused but had its address taken
   937     0000                     
   938 ;; Function _I2C_SlaveDefWrColInterruptHandler is unused but had its address taken
   939     0000                     
   940 ;; Function _I2C_SlaveDefBusColInterruptHandler is unused but had its address taken
   941     000F                     _PORTDbits	set	15
   942     0011                     _PIR1bits	set	17
   943     008B                     _SSPIF	set	139
   944     005E                     _PEIE	set	94
   945     005F                     _GIE	set	95
   946     0091                     _PIE1bits	set	145
   947     0097                     _WDTCON	set	151
   948     0098                     _OSCTUNE	set	152
   949     0099                     _OSCCON	set	153
   950     0095                     _OPTION_REGbits	set	149
   951     008F                     _TRISD	set	143
   952     008E                     _TRISC	set	142
   953     008D                     _TRISB	set	141
   954     008C                     _TRISA	set	140
   955     0090                     _TRISE	set	144
   956     048B                     _SSPIE	set	1163
   957     0474                     _TRISC4	set	1140
   958     0473                     _TRISC3	set	1139
   959     04D6                     _PLLR	set	1238
   960     010C                     _LATAbits	set	268
   961     0116                     _BORCON	set	278
   962     011D                     _APFCON	set	285
   963     010E                     _LATC	set	270
   964     010D                     _LATB	set	269
   965     010C                     _LATA	set	268
   966     010F                     _LATD	set	271
   967     0110                     _LATE	set	272
   968     018C                     _ANSELA	set	396
   969     0190                     _ANSELE	set	400
   970     018D                     _ANSELB	set	397
   971     018F                     _ANSELD	set	399
   972     0215                     _SSPCON	set	533
   973     0211                     _SSPBUF	set	529
   974     0216                     _SSPCON2bits	set	534
   975     0214                     _SSPSTATbits	set	532
   976     0213                     _SSPMSK	set	531
   977     0212                     _SSPADD	set	530
   978     0215                     _SSPCON1bits	set	533
   979     0216                     _SSPCON2	set	534
   980     0215                     _SSPCON1	set	533
   981     0214                     _SSPSTAT	set	532
   982     020D                     _WPUB	set	525
   983     0210                     _WPUE	set	528
   984     10AC                     _CKP	set	4268
   985     10A2                     _R_nW	set	4258
   986     10A5                     _D_nA	set	4261
   987     10AF                     _WCOL	set	4271
   988     10AE                     _SSPOV	set	4270
   989                           
   990                           	psect	cinit
   991     009E                     start_initialization:	
   992                           ; #config settings
   993                           
   994     009E                     __initialization:
   995                           
   996                           ; Clear objects allocated to COMMON
   997     009E  01F0               	clrf	__pbssCOMMON& (0+127)
   998     009F  01F1               	clrf	(__pbssCOMMON+1)& (0+127)
   999     00A0  01F2               	clrf	(__pbssCOMMON+2)& (0+127)
  1000     00A1  01F3               	clrf	(__pbssCOMMON+3)& (0+127)
  1001     00A2  01F4               	clrf	(__pbssCOMMON+4)& (0+127)
  1002     00A3  01F5               	clrf	(__pbssCOMMON+5)& (0+127)
  1003     00A4  01F6               	clrf	(__pbssCOMMON+6)& (0+127)
  1004     00A5  01F7               	clrf	(__pbssCOMMON+7)& (0+127)
  1005     00A6  01F8               	clrf	(__pbssCOMMON+8)& (0+127)
  1006     00A7  01F9               	clrf	(__pbssCOMMON+9)& (0+127)
  1007                           
  1008                           ; Clear objects allocated to BANK0
  1009     00A8  0020               	movlb	0	; select bank0
  1010     00A9  01A0               	clrf	__pbssBANK0& (0+127)
  1011     00AA  01A1               	clrf	(__pbssBANK0+1)& (0+127)
  1012     00AB  01A2               	clrf	(__pbssBANK0+2)& (0+127)
  1013     00AC  01A3               	clrf	(__pbssBANK0+3)& (0+127)
  1014     00AD  01A4               	clrf	(__pbssBANK0+4)& (0+127)
  1015     00AE  01A5               	clrf	(__pbssBANK0+5)& (0+127)
  1016     00AF  01A6               	clrf	(__pbssBANK0+6)& (0+127)
  1017     00B0  01A7               	clrf	(__pbssBANK0+7)& (0+127)
  1018     00B1                     end_of_initialization:	
  1019                           ;End of C runtime variable initialization code
  1020                           
  1021     00B1                     __end_of__initialization:
  1022     00B1  107E               	bcf	int$flags,0	;clear compiler interrupt flag (level 1)
  1023     00B2  0020               	movlb	0
  1024     00B3  3180  28D6         	ljmp	_main	;jump to C main() function
  1025                           
  1026                           	psect	bssCOMMON
  1027     0070                     __pbssCOMMON:
  1028     0070                     _I2C_SlaveWrInterruptHandler:
  1029     0070                     	ds	2
  1030     0072                     _I2C_SlaveRdInterruptHandler:
  1031     0072                     	ds	2
  1032     0074                     _ordre:
  1033     0074                     	ds	1
  1034     0075                     _request:
  1035     0075                     	ds	1
  1036     0076                     _i2cSlaveState:
  1037     0076                     	ds	1
  1038     0077                     _i2cSlaveAddr:
  1039     0077                     	ds	1
  1040     0078                     _i2cRdData:
  1041     0078                     	ds	1
  1042     0079                     _i2cWrData:
  1043     0079                     	ds	1
  1044                           
  1045                           	psect	bssBANK0
  1046     0020                     __pbssBANK0:
  1047     0020                     _I2C_SlaveWrColInterruptHandler:
  1048     0020                     	ds	2
  1049     0022                     _I2C_SlaveBusColInterruptHandler:
  1050     0022                     	ds	2
  1051     0024                     _I2C_SlaveAddrInterruptHandler:
  1052     0024                     	ds	2
  1053     0026                     _MSSP_InterruptHandler:
  1054     0026                     	ds	2
  1055                           
  1056                           	psect	cstackCOMMON
  1057     007A                     __pcstackCOMMON:
  1058     007A                     ?_I2C_Initialize:
  1059     007A                     ?_OSCILLATOR_Initialize:	
  1060                           ; 1 bytes @ 0x0
  1061                           
  1062     007A                     ?_WDT_Initialize:	
  1063                           ; 1 bytes @ 0x0
  1064                           
  1065     007A                     ?_I2C_Slave_Init:	
  1066                           ; 1 bytes @ 0x0
  1067                           
  1068     007A                     ?_PIN_MANAGER_Initialize:	
  1069                           ; 1 bytes @ 0x0
  1070                           
  1071     007A                     ?_SYSTEM_Initialize:	
  1072                           ; 1 bytes @ 0x0
  1073                           
  1074     007A                     ?_main:	
  1075                           ; 1 bytes @ 0x0
  1076                           
  1077     007A                     ?_I2C_Slave_Read_Write:	
  1078                           ; 1 bytes @ 0x0
  1079                           
  1080     007A                     ??_I2C_Slave_Read_Write:	
  1081                           ; 1 bytes @ 0x0
  1082                           
  1083     007A                     I2C_Slave_Read_Write@temp_649:	
  1084                           ; 1 bytes @ 0x0
  1085                           
  1086                           
  1087                           ; 1 bytes @ 0x0
  1088     007A                     	ds	1
  1089     007B                     I2C_Slave_Read_Write@temp_650:
  1090                           
  1091                           ; 1 bytes @ 0x1
  1092     007B                     	ds	1
  1093     007C                     ??_OSCILLATOR_Initialize:
  1094     007C                     ??_WDT_Initialize:	
  1095                           ; 1 bytes @ 0x2
  1096                           
  1097     007C                     ??_I2C_Slave_Init:	
  1098                           ; 1 bytes @ 0x2
  1099                           
  1100     007C                     ??_PIN_MANAGER_Initialize:	
  1101                           ; 1 bytes @ 0x2
  1102                           
  1103     007C                     ??_SYSTEM_Initialize:	
  1104                           ; 1 bytes @ 0x2
  1105                           
  1106     007C                     ??_main:	
  1107                           ; 1 bytes @ 0x2
  1108                           
  1109                           
  1110                           	psect	cstackBANK0
  1111     0028                     __pcstackBANK0:	
  1112                           ; 1 bytes @ 0x2
  1113                           
  1114     0028                     ??_I2C_Initialize:
  1115                           
  1116                           ; 1 bytes @ 0x0
  1117     0028                     	ds	1
  1118                           
  1119                           	psect	maintext
  1120     00D6                     __pmaintext:	
  1121 ;;
  1122 ;;Main: autosize = 0, tempsize = 0, incstack = 0, save=0
  1123 ;;
  1124 ;; *************** function _main *****************
  1125 ;; Defined at:
  1126 ;;		line 54 in file "main.c"
  1127 ;; Parameters:    Size  Location     Type
  1128 ;;		None
  1129 ;; Auto vars:     Size  Location     Type
  1130 ;;		None
  1131 ;; Return value:  Size  Location     Type
  1132 ;;                  1    wreg      void 
  1133 ;; Registers used:
  1134 ;;		wreg, status,2, status,0, pclath, cstack
  1135 ;; Tracked objects:
  1136 ;;		On entry : B1F/0
  1137 ;;		On exit  : 0/0
  1138 ;;		Unchanged: 0/0
  1139 ;; Data sizes:     COMMON   BANK0   BANK1   BANK2   BANK3   BANK4   BANK5   BANK6   BANK7   BANK8   BANK9  BANK10  BANK1
      +1  BANK12
  1140 ;;      Params:         0       0       0       0       0       0       0       0       0       0       0       0       
      +0       0
  1141 ;;      Locals:         0       0       0       0       0       0       0       0       0       0       0       0       
      +0       0
  1142 ;;      Temps:          0       0       0       0       0       0       0       0       0       0       0       0       
      +0       0
  1143 ;;      Totals:         0       0       0       0       0       0       0       0       0       0       0       0       
      +0       0
  1144 ;;Total ram usage:        0 bytes
  1145 ;; Hardware stack levels required when called: 3
  1146 ;; This function calls:
  1147 ;;		_I2C_Slave_Init
  1148 ;;		_SYSTEM_Initialize
  1149 ;; This function is called by:
  1150 ;;		Startup code after reset
  1151 ;; This function uses a non-reentrant model
  1152 ;;
  1153                           
  1154     00D6                     _main:	
  1155                           ;psect for function _main
  1156                           
  1157     00D6                     l1466:	
  1158                           ;incstack = 0
  1159                           ; Regs used in _main: [wreg+status,2+status,0+pclath+cstack]
  1160                           
  1161                           
  1162                           ;main.c: 56:     SYSTEM_Initialize();
  1163     00D6  3180  20FC  3180   	fcall	_SYSTEM_Initialize
  1164                           
  1165                           ;main.c: 76:     I2C_Slave_Init();
  1166     00D9  3180  20ED  3180   	fcall	_I2C_Slave_Init
  1167     00DC                     l1468:
  1168                           
  1169                           ;main.c: 81:         if (PORTDbits.RD7 == 0) {
  1170     00DC  0020               	movlb	0	; select bank0
  1171     00DD  1B8F               	btfsc	15,7	;volatile
  1172     00DE  28E0               	goto	u431
  1173     00DF  28E1               	goto	u430
  1174     00E0                     u431:
  1175     00E0  28DC               	goto	l1468
  1176     00E1                     u430:
  1177     00E1                     l409:	
  1178                           ;main.c: 83:             do { LATAbits.LATA0 = 0; } while(0);
  1179                           
  1180     00E1  0022               	movlb	2	; select bank2
  1181     00E2  100C               	bcf	12,0	;volatile
  1182     00E3                     l411:	
  1183                           ;main.c: 84:             do { LATAbits.LATA1 = 0; } while(0);
  1184                           
  1185     00E3  108C               	bcf	12,1	;volatile
  1186     00E4                     l413:	
  1187                           ;main.c: 85:             do { LATAbits.LATA2 = 0; } while(0);
  1188                           
  1189     00E4  110C               	bcf	12,2	;volatile
  1190     00E5                     l415:	
  1191                           ;main.c: 86:             do { LATAbits.LATA3 = 0; } while(0);
  1192                           
  1193     00E5  118C               	bcf	12,3	;volatile
  1194     00E6                     l417:	
  1195                           ;main.c: 87:             do { LATAbits.LATA4 = 0; } while(0);
  1196                           
  1197     00E6  120C               	bcf	12,4	;volatile
  1198     00E7                     l419:	
  1199                           ;main.c: 88:             do { LATAbits.LATA5 = 0; } while(0);
  1200                           
  1201     00E7  128C               	bcf	12,5	;volatile
  1202     00E8                     l421:	
  1203                           ;main.c: 89:             do { LATAbits.LATA6 = 0; } while(0);
  1204                           
  1205     00E8  130C               	bcf	12,6	;volatile
  1206     00E9                     l423:	
  1207                           ;main.c: 90:             do { LATAbits.LATA7 = 0; } while(0);
  1208                           
  1209     00E9  138C               	bcf	12,7	;volatile
  1210     00EA  28DC               	goto	l1468
  1211     00EB  3180  289C         	ljmp	start
  1212     00ED                     __end_of_main:
  1213                           
  1214                           	psect	text1
  1215     00FC                     __ptext1:	
  1216 ;; *************** function _SYSTEM_Initialize *****************
  1217 ;; Defined at:
  1218 ;;		line 50 in file "mcc_generated_files/mcc.c"
  1219 ;; Parameters:    Size  Location     Type
  1220 ;;		None
  1221 ;; Auto vars:     Size  Location     Type
  1222 ;;		None
  1223 ;; Return value:  Size  Location     Type
  1224 ;;                  1    wreg      void 
  1225 ;; Registers used:
  1226 ;;		wreg, status,2, status,0, pclath, cstack
  1227 ;; Tracked objects:
  1228 ;;		On entry : 0/0
  1229 ;;		On exit  : 0/0
  1230 ;;		Unchanged: 0/0
  1231 ;; Data sizes:     COMMON   BANK0   BANK1   BANK2   BANK3   BANK4   BANK5   BANK6   BANK7   BANK8   BANK9  BANK10  BANK1
      +1  BANK12
  1232 ;;      Params:         0       0       0       0       0       0       0       0       0       0       0       0       
      +0       0
  1233 ;;      Locals:         0       0       0       0       0       0       0       0       0       0       0       0       
      +0       0
  1234 ;;      Temps:          0       0       0       0       0       0       0       0       0       0       0       0       
      +0       0
  1235 ;;      Totals:         0       0       0       0       0       0       0       0       0       0       0       0       
      +0       0
  1236 ;;Total ram usage:        0 bytes
  1237 ;; Hardware stack levels used: 1
  1238 ;; Hardware stack levels required when called: 2
  1239 ;; This function calls:
  1240 ;;		_I2C_Initialize
  1241 ;;		_OSCILLATOR_Initialize
  1242 ;;		_PIN_MANAGER_Initialize
  1243 ;;		_WDT_Initialize
  1244 ;; This function is called by:
  1245 ;;		_main
  1246 ;; This function uses a non-reentrant model
  1247 ;;
  1248                           
  1249     00FC                     _SYSTEM_Initialize:	
  1250                           ;psect for function _SYSTEM_Initialize
  1251                           
  1252     00FC                     l1462:	
  1253                           ;incstack = 0
  1254                           ; Regs used in _SYSTEM_Initialize: [wreg+status,2+status,0+pclath+cstack]
  1255                           
  1256                           
  1257                           ;mcc_generated_files/mcc.c: 53:     I2C_Initialize();
  1258     00FC  3181  2115  3180   	fcall	_I2C_Initialize
  1259                           
  1260                           ;mcc_generated_files/mcc.c: 54:     PIN_MANAGER_Initialize();
  1261     00FF  3180  20B5  3180   	fcall	_PIN_MANAGER_Initialize
  1262                           
  1263                           ;mcc_generated_files/mcc.c: 55:     OSCILLATOR_Initialize();
  1264     0102  3181  2109  3180   	fcall	_OSCILLATOR_Initialize
  1265                           
  1266                           ;mcc_generated_files/mcc.c: 56:     WDT_Initialize();
  1267     0105  3181  2121  3180   	fcall	_WDT_Initialize
  1268     0108                     l75:
  1269     0108  0008               	return
  1270     0109                     __end_of_SYSTEM_Initialize:
  1271                           
  1272                           	psect	text2
  1273     0121                     __ptext2:	
  1274 ;; *************** function _WDT_Initialize *****************
  1275 ;; Defined at:
  1276 ;;		line 73 in file "mcc_generated_files/mcc.c"
  1277 ;; Parameters:    Size  Location     Type
  1278 ;;		None
  1279 ;; Auto vars:     Size  Location     Type
  1280 ;;		None
  1281 ;; Return value:  Size  Location     Type
  1282 ;;                  1    wreg      void 
  1283 ;; Registers used:
  1284 ;;		wreg
  1285 ;; Tracked objects:
  1286 ;;		On entry : 0/0
  1287 ;;		On exit  : 0/0
  1288 ;;		Unchanged: 0/0
  1289 ;; Data sizes:     COMMON   BANK0   BANK1   BANK2   BANK3   BANK4   BANK5   BANK6   BANK7   BANK8   BANK9  BANK10  BANK1
      +1  BANK12
  1290 ;;      Params:         0       0       0       0       0       0       0       0       0       0       0       0       
      +0       0
  1291 ;;      Locals:         0       0       0       0       0       0       0       0       0       0       0       0       
      +0       0
  1292 ;;      Temps:          0       0       0       0       0       0       0       0       0       0       0       0       
      +0       0
  1293 ;;      Totals:         0       0       0       0       0       0       0       0       0       0       0       0       
      +0       0
  1294 ;;Total ram usage:        0 bytes
  1295 ;; Hardware stack levels used: 1
  1296 ;; Hardware stack levels required when called: 1
  1297 ;; This function calls:
  1298 ;;		Nothing
  1299 ;; This function is called by:
  1300 ;;		_SYSTEM_Initialize
  1301 ;; This function uses a non-reentrant model
  1302 ;;
  1303                           
  1304     0121                     _WDT_Initialize:	
  1305                           ;psect for function _WDT_Initialize
  1306                           
  1307     0121                     l1126:	
  1308                           ;incstack = 0
  1309                           ; Regs used in _WDT_Initialize: [wreg]
  1310                           
  1311                           
  1312                           ;mcc_generated_files/mcc.c: 76:     WDTCON = 0x16;
  1313     0121  3016               	movlw	22
  1314     0122  0021               	movlb	1	; select bank1
  1315     0123  0097               	movwf	23	;volatile
  1316     0124                     l84:
  1317     0124  0008               	return
  1318     0125                     __end_of_WDT_Initialize:
  1319                           
  1320                           	psect	text3
  1321     00B5                     __ptext3:	
  1322 ;; *************** function _PIN_MANAGER_Initialize *****************
  1323 ;; Defined at:
  1324 ;;		line 55 in file "mcc_generated_files/pin_manager.c"
  1325 ;; Parameters:    Size  Location     Type
  1326 ;;		None
  1327 ;; Auto vars:     Size  Location     Type
  1328 ;;		None
  1329 ;; Return value:  Size  Location     Type
  1330 ;;                  1    wreg      void 
  1331 ;; Registers used:
  1332 ;;		wreg, status,2
  1333 ;; Tracked objects:
  1334 ;;		On entry : 0/0
  1335 ;;		On exit  : 0/0
  1336 ;;		Unchanged: 0/0
  1337 ;; Data sizes:     COMMON   BANK0   BANK1   BANK2   BANK3   BANK4   BANK5   BANK6   BANK7   BANK8   BANK9  BANK10  BANK1
      +1  BANK12
  1338 ;;      Params:         0       0       0       0       0       0       0       0       0       0       0       0       
      +0       0
  1339 ;;      Locals:         0       0       0       0       0       0       0       0       0       0       0       0       
      +0       0
  1340 ;;      Temps:          0       0       0       0       0       0       0       0       0       0       0       0       
      +0       0
  1341 ;;      Totals:         0       0       0       0       0       0       0       0       0       0       0       0       
      +0       0
  1342 ;;Total ram usage:        0 bytes
  1343 ;; Hardware stack levels used: 1
  1344 ;; Hardware stack levels required when called: 1
  1345 ;; This function calls:
  1346 ;;		Nothing
  1347 ;; This function is called by:
  1348 ;;		_SYSTEM_Initialize
  1349 ;; This function uses a non-reentrant model
  1350 ;;
  1351                           
  1352     00B5                     _PIN_MANAGER_Initialize:	
  1353                           ;psect for function _PIN_MANAGER_Initialize
  1354                           
  1355     00B5                     l1098:	
  1356                           ;incstack = 0
  1357                           ; Regs used in _PIN_MANAGER_Initialize: [wreg+status,2]
  1358                           
  1359                           
  1360                           ;mcc_generated_files/pin_manager.c: 60:     LATE = 0x00;
  1361     00B5  0022               	movlb	2	; select bank2
  1362     00B6  0190               	clrf	16	;volatile
  1363                           
  1364                           ;mcc_generated_files/pin_manager.c: 61:     LATD = 0x00;
  1365     00B7  018F               	clrf	15	;volatile
  1366                           
  1367                           ;mcc_generated_files/pin_manager.c: 62:     LATA = 0x00;
  1368     00B8  018C               	clrf	12	;volatile
  1369                           
  1370                           ;mcc_generated_files/pin_manager.c: 63:     LATB = 0x00;
  1371     00B9  018D               	clrf	13	;volatile
  1372                           
  1373                           ;mcc_generated_files/pin_manager.c: 64:     LATC = 0x00;
  1374     00BA  018E               	clrf	14	;volatile
  1375     00BB                     l1100:
  1376                           
  1377                           ;mcc_generated_files/pin_manager.c: 69:     TRISE = 0x0F;
  1378     00BB  300F               	movlw	15
  1379     00BC  0021               	movlb	1	; select bank1
  1380     00BD  0090               	movwf	16	;volatile
  1381     00BE                     l1102:
  1382                           
  1383                           ;mcc_generated_files/pin_manager.c: 70:     TRISA = 0x00;
  1384     00BE  018C               	clrf	12	;volatile
  1385                           
  1386                           ;mcc_generated_files/pin_manager.c: 71:     TRISB = 0xFF;
  1387     00BF  30FF               	movlw	255
  1388     00C0  008D               	movwf	13	;volatile
  1389                           
  1390                           ;mcc_generated_files/pin_manager.c: 72:     TRISC = 0xFF;
  1391     00C1  30FF               	movlw	255
  1392     00C2  008E               	movwf	14	;volatile
  1393                           
  1394                           ;mcc_generated_files/pin_manager.c: 73:     TRISD = 0xFF;
  1395     00C3  30FF               	movlw	255
  1396     00C4  008F               	movwf	15	;volatile
  1397                           
  1398                           ;mcc_generated_files/pin_manager.c: 78:     ANSELD = 0x7F;
  1399     00C5  307F               	movlw	127
  1400     00C6  0023               	movlb	3	; select bank3
  1401     00C7  008F               	movwf	15	;volatile
  1402                           
  1403                           ;mcc_generated_files/pin_manager.c: 79:     ANSELB = 0x3F;
  1404     00C8  303F               	movlw	63
  1405     00C9  008D               	movwf	13	;volatile
  1406                           
  1407                           ;mcc_generated_files/pin_manager.c: 80:     ANSELE = 0x07;
  1408     00CA  3007               	movlw	7
  1409     00CB  0090               	movwf	16	;volatile
  1410                           
  1411                           ;mcc_generated_files/pin_manager.c: 81:     ANSELA = 0x3F;
  1412     00CC  303F               	movlw	63
  1413     00CD  008C               	movwf	12	;volatile
  1414     00CE                     l1104:
  1415                           
  1416                           ;mcc_generated_files/pin_manager.c: 86:     WPUE = 0x00;
  1417     00CE  0024               	movlb	4	; select bank4
  1418     00CF  0190               	clrf	16	;volatile
  1419     00D0                     l1106:
  1420                           
  1421                           ;mcc_generated_files/pin_manager.c: 87:     WPUB = 0x00;
  1422     00D0  018D               	clrf	13	;volatile
  1423     00D1                     l1108:
  1424                           
  1425                           ;mcc_generated_files/pin_manager.c: 88:     OPTION_REGbits.nWPUEN = 1;
  1426     00D1  0021               	movlb	1	; select bank1
  1427     00D2  1795               	bsf	21,7	;volatile
  1428     00D3                     l1110:
  1429                           
  1430                           ;mcc_generated_files/pin_manager.c: 94:     APFCON = 0x00;
  1431     00D3  0022               	movlb	2	; select bank2
  1432     00D4  019D               	clrf	29	;volatile
  1433     00D5                     l39:
  1434     00D5  0008               	return
  1435     00D6                     __end_of_PIN_MANAGER_Initialize:
  1436                           
  1437                           	psect	text4
  1438     0109                     __ptext4:	
  1439 ;; *************** function _OSCILLATOR_Initialize *****************
  1440 ;; Defined at:
  1441 ;;		line 59 in file "mcc_generated_files/mcc.c"
  1442 ;; Parameters:    Size  Location     Type
  1443 ;;		None
  1444 ;; Auto vars:     Size  Location     Type
  1445 ;;		None
  1446 ;; Return value:  Size  Location     Type
  1447 ;;                  1    wreg      void 
  1448 ;; Registers used:
  1449 ;;		wreg, status,2
  1450 ;; Tracked objects:
  1451 ;;		On entry : 0/0
  1452 ;;		On exit  : 0/0
  1453 ;;		Unchanged: 0/0
  1454 ;; Data sizes:     COMMON   BANK0   BANK1   BANK2   BANK3   BANK4   BANK5   BANK6   BANK7   BANK8   BANK9  BANK10  BANK1
      +1  BANK12
  1455 ;;      Params:         0       0       0       0       0       0       0       0       0       0       0       0       
      +0       0
  1456 ;;      Locals:         0       0       0       0       0       0       0       0       0       0       0       0       
      +0       0
  1457 ;;      Temps:          0       0       0       0       0       0       0       0       0       0       0       0       
      +0       0
  1458 ;;      Totals:         0       0       0       0       0       0       0       0       0       0       0       0       
      +0       0
  1459 ;;Total ram usage:        0 bytes
  1460 ;; Hardware stack levels used: 1
  1461 ;; Hardware stack levels required when called: 1
  1462 ;; This function calls:
  1463 ;;		Nothing
  1464 ;; This function is called by:
  1465 ;;		_SYSTEM_Initialize
  1466 ;; This function uses a non-reentrant model
  1467 ;;
  1468                           
  1469     0109                     _OSCILLATOR_Initialize:	
  1470                           ;psect for function _OSCILLATOR_Initialize
  1471                           
  1472     0109                     l1120:	
  1473                           ;incstack = 0
  1474                           ; Regs used in _OSCILLATOR_Initialize: [wreg+status,2]
  1475                           
  1476                           
  1477                           ;mcc_generated_files/mcc.c: 62:     OSCCON = 0x70;
  1478     0109  3070               	movlw	112
  1479     010A  0021               	movlb	1	; select bank1
  1480     010B  0099               	movwf	25	;volatile
  1481     010C                     l1122:
  1482                           
  1483                           ;mcc_generated_files/mcc.c: 64:     OSCTUNE = 0x00;
  1484     010C  0198               	clrf	24	;volatile
  1485     010D                     l1124:
  1486                           
  1487                           ;mcc_generated_files/mcc.c: 66:     BORCON = 0x00;
  1488     010D  0022               	movlb	2	; select bank2
  1489     010E  0196               	clrf	22	;volatile
  1490     010F                     l78:	
  1491                           ;mcc_generated_files/mcc.c: 69:     {;mcc_generated_files/mcc.c: 70:     }
  1492                           
  1493                           
  1494                           ;mcc_generated_files/mcc.c: 68:     while(PLLR == 0)
  1495     010F  0021               	movlb	1	; select bank1
  1496     0110  1F1A               	btfss	26,6	;volatile
  1497     0111  2913               	goto	u11
  1498     0112  2914               	goto	u10
  1499     0113                     u11:
  1500     0113  290F               	goto	l78
  1501     0114                     u10:
  1502     0114                     l81:
  1503     0114  0008               	return
  1504     0115                     __end_of_OSCILLATOR_Initialize:
  1505                           
  1506                           	psect	text5
  1507     0115                     __ptext5:	
  1508 ;; *************** function _I2C_Initialize *****************
  1509 ;; Defined at:
  1510 ;;		line 108 in file "mcc_generated_files/i2c_slave.c"
  1511 ;; Parameters:    Size  Location     Type
  1512 ;;		None
  1513 ;; Auto vars:     Size  Location     Type
  1514 ;;		None
  1515 ;; Return value:  Size  Location     Type
  1516 ;;                  1    wreg      void 
  1517 ;; Registers used:
  1518 ;;		wreg, status,2, status,0
  1519 ;; Tracked objects:
  1520 ;;		On entry : 0/0
  1521 ;;		On exit  : 0/0
  1522 ;;		Unchanged: 0/0
  1523 ;; Data sizes:     COMMON   BANK0   BANK1   BANK2   BANK3   BANK4   BANK5   BANK6   BANK7   BANK8   BANK9  BANK10  BANK1
      +1  BANK12
  1524 ;;      Params:         0       0       0       0       0       0       0       0       0       0       0       0       
      +0       0
  1525 ;;      Locals:         0       0       0       0       0       0       0       0       0       0       0       0       
      +0       0
  1526 ;;      Temps:          0       1       0       0       0       0       0       0       0       0       0       0       
      +0       0
  1527 ;;      Totals:         0       1       0       0       0       0       0       0       0       0       0       0       
      +0       0
  1528 ;;Total ram usage:        1 bytes
  1529 ;; Hardware stack levels used: 1
  1530 ;; Hardware stack levels required when called: 1
  1531 ;; This function calls:
  1532 ;;		Nothing
  1533 ;; This function is called by:
  1534 ;;		_SYSTEM_Initialize
  1535 ;;		_I2C_Enable
  1536 ;; This function uses a non-reentrant model
  1537 ;;
  1538                           
  1539     0115                     _I2C_Initialize:	
  1540                           ;psect for function _I2C_Initialize
  1541                           
  1542     0115                     l1454:	
  1543                           ;incstack = 0
  1544                           ; Regs used in _I2C_Initialize: [wreg+status,2+status,0]
  1545                           
  1546                           
  1547                           ;mcc_generated_files/i2c_slave.c: 110:     SSPSTAT = 0x80;
  1548     0115  3080               	movlw	128
  1549     0116  0024               	movlb	4	; select bank4
  1550     0117  0094               	movwf	20	;volatile
  1551     0118                     l1456:
  1552                           
  1553                           ;mcc_generated_files/i2c_slave.c: 111:     SSPCON1 |= 0x06;
  1554     0118  3006               	movlw	6
  1555     0119  0020               	movlb	0	; select bank0
  1556     011A  00A8               	movwf	??_I2C_Initialize
  1557     011B  0828               	movf	??_I2C_Initialize,w
  1558     011C  0024               	movlb	4	; select bank4
  1559     011D  0495               	iorwf	21,f	;volatile
  1560     011E                     l1458:
  1561                           
  1562                           ;mcc_generated_files/i2c_slave.c: 112:     SSPCON2 = 0x00;
  1563     011E  0196               	clrf	22	;volatile
  1564     011F                     l1460:
  1565                           
  1566                           ;mcc_generated_files/i2c_slave.c: 113:     SSPCON1bits.SSPEN = 0;
  1567     011F  1295               	bcf	21,5	;volatile
  1568     0120                     l189:
  1569     0120  0008               	return
  1570     0121                     __end_of_I2C_Initialize:
  1571                           
  1572                           	psect	text6
  1573     00ED                     __ptext6:	
  1574 ;; *************** function _I2C_Slave_Init *****************
  1575 ;; Defined at:
  1576 ;;		line 101 in file "main.c"
  1577 ;; Parameters:    Size  Location     Type
  1578 ;;		None
  1579 ;; Auto vars:     Size  Location     Type
  1580 ;;		None
  1581 ;; Return value:  Size  Location     Type
  1582 ;;                  1    wreg      void 
  1583 ;; Registers used:
  1584 ;;		wreg, status,2
  1585 ;; Tracked objects:
  1586 ;;		On entry : 0/0
  1587 ;;		On exit  : 0/0
  1588 ;;		Unchanged: 0/0
  1589 ;; Data sizes:     COMMON   BANK0   BANK1   BANK2   BANK3   BANK4   BANK5   BANK6   BANK7   BANK8   BANK9  BANK10  BANK1
      +1  BANK12
  1590 ;;      Params:         0       0       0       0       0       0       0       0       0       0       0       0       
      +0       0
  1591 ;;      Locals:         0       0       0       0       0       0       0       0       0       0       0       0       
      +0       0
  1592 ;;      Temps:          0       0       0       0       0       0       0       0       0       0       0       0       
      +0       0
  1593 ;;      Totals:         0       0       0       0       0       0       0       0       0       0       0       0       
      +0       0
  1594 ;;Total ram usage:        0 bytes
  1595 ;; Hardware stack levels used: 1
  1596 ;; Hardware stack levels required when called: 1
  1597 ;; This function calls:
  1598 ;;		Nothing
  1599 ;; This function is called by:
  1600 ;;		_main
  1601 ;; This function uses a non-reentrant model
  1602 ;;
  1603                           
  1604     00ED                     _I2C_Slave_Init:	
  1605                           ;psect for function _I2C_Slave_Init
  1606                           
  1607     00ED                     l1130:	
  1608                           ;incstack = 0
  1609                           ; Regs used in _I2C_Slave_Init: [wreg+status,2]
  1610                           
  1611                           
  1612                           ;main.c: 102:     SSPADD = 50;
  1613     00ED  3032               	movlw	50
  1614     00EE  0024               	movlb	4	; select bank4
  1615     00EF  0092               	movwf	18	;volatile
  1616                           
  1617                           ;main.c: 103:     SSPCON = 0b00110110;
  1618     00F0  3036               	movlw	54
  1619     00F1  0095               	movwf	21	;volatile
  1620     00F2                     l1132:
  1621                           
  1622                           ;main.c: 104:     SSPCON2 = 0;
  1623     00F2  0196               	clrf	22	;volatile
  1624     00F3                     l1134:
  1625                           
  1626                           ;main.c: 105:     SSPSTAT = 0x80;
  1627     00F3  3080               	movlw	128
  1628     00F4  0094               	movwf	20	;volatile
  1629     00F5                     l1136:
  1630                           
  1631                           ;main.c: 106:     TRISC3 = 1;
  1632     00F5  0021               	movlb	1	; select bank1
  1633     00F6  158E               	bsf	14,3	;volatile
  1634     00F7                     l1138:
  1635                           
  1636                           ;main.c: 107:     TRISC4 = 1;
  1637     00F7  160E               	bsf	14,4	;volatile
  1638     00F8                     l1140:
  1639                           
  1640                           ;main.c: 108:     GIE = 1;
  1641     00F8  178B               	bsf	11,7	;volatile
  1642     00F9                     l1142:
  1643                           
  1644                           ;main.c: 109:     PEIE = 1;
  1645     00F9  170B               	bsf	11,6	;volatile
  1646     00FA                     l1144:
  1647                           
  1648                           ;main.c: 110:     SSPIE = 1;
  1649     00FA  1591               	bsf	17,3	;volatile
  1650     00FB                     l431:
  1651     00FB  0008               	return
  1652     00FC                     __end_of_I2C_Slave_Init:
  1653                           
  1654                           	psect	intentry
  1655     0004                     __pintentry:	
  1656 ;; *************** function _I2C_Slave_Read_Write *****************
  1657 ;; Defined at:
  1658 ;;		line 113 in file "main.c"
  1659 ;; Parameters:    Size  Location     Type
  1660 ;;		None
  1661 ;; Auto vars:     Size  Location     Type
  1662 ;;  temp            1    1[COMMON] unsigned char 
  1663 ;;  temp            1    0[COMMON] unsigned char 
  1664 ;;  temp            1    0        unsigned char 
  1665 ;;  temp            1    0        unsigned char 
  1666 ;; Return value:  Size  Location     Type
  1667 ;;                  1    wreg      void 
  1668 ;; Registers used:
  1669 ;;		wreg, status,2, status,0
  1670 ;; Tracked objects:
  1671 ;;		On entry : 0/0
  1672 ;;		On exit  : 0/0
  1673 ;;		Unchanged: 0/0
  1674 ;; Data sizes:     COMMON   BANK0   BANK1   BANK2   BANK3   BANK4   BANK5   BANK6   BANK7   BANK8   BANK9  BANK10  BANK1
      +1  BANK12
  1675 ;;      Params:         0       0       0       0       0       0       0       0       0       0       0       0       
      +0       0
  1676 ;;      Locals:         2       0       0       0       0       0       0       0       0       0       0       0       
      +0       0
  1677 ;;      Temps:          0       0       0       0       0       0       0       0       0       0       0       0       
      +0       0
  1678 ;;      Totals:         2       0       0       0       0       0       0       0       0       0       0       0       
      +0       0
  1679 ;;Total ram usage:        2 bytes
  1680 ;; Hardware stack levels used: 1
  1681 ;; This function calls:
  1682 ;;		Nothing
  1683 ;; This function is called by:
  1684 ;;		Interrupt level 1
  1685 ;; This function uses a non-reentrant model
  1686 ;;
  1687                           
  1688     0004                     _I2C_Slave_Read_Write:
  1689                           
  1690                           ;incstack = 0
  1691     0004  147E               	bsf	int$flags,0	;set compiler interrupt flag (level 1)
  1692                           
  1693                           ; Regs used in _I2C_Slave_Read_Write: [wreg+status,2+status,0]
  1694     0005  3180               	pagesel	$
  1695     0006                     i1l436:	
  1696                           ;main.c: 115:     do { LATAbits.LATA0 = 0; } while(0);
  1697                           
  1698     0006  0022               	movlb	2	; select bank2
  1699     0007  100C               	bcf	12,0	;volatile
  1700     0008                     i1l438:	
  1701                           ;main.c: 116:     do { LATAbits.LATA1 = 0; } while(0);
  1702                           
  1703     0008  108C               	bcf	12,1	;volatile
  1704     0009                     i1l440:	
  1705                           ;main.c: 117:     do { LATAbits.LATA2 = 0; } while(0);
  1706                           
  1707     0009  110C               	bcf	12,2	;volatile
  1708     000A                     i1l442:	
  1709                           ;main.c: 118:     do { LATAbits.LATA3 = 0; } while(0);
  1710                           
  1711     000A  118C               	bcf	12,3	;volatile
  1712     000B                     i1l444:	
  1713                           ;main.c: 119:     do { LATAbits.LATA4 = 0; } while(0);
  1714                           
  1715     000B  120C               	bcf	12,4	;volatile
  1716     000C                     i1l446:	
  1717                           ;main.c: 120:     do { LATAbits.LATA5 = 0; } while(0);
  1718                           
  1719     000C  128C               	bcf	12,5	;volatile
  1720     000D                     i1l448:	
  1721                           ;main.c: 121:     do { LATAbits.LATA6 = 0; } while(0);
  1722                           
  1723     000D  130C               	bcf	12,6	;volatile
  1724     000E                     i1l450:	
  1725                           ;main.c: 124:     do { LATAbits.LATA7 = 1; } while(0);
  1726                           
  1727     000E  178C               	bsf	12,7	;volatile
  1728     000F                     i1l451:
  1729                           
  1730                           ;main.c: 126:     if (SSPIF) {
  1731     000F  0020               	movlb	0	; select bank0
  1732     0010  1D91               	btfss	17,3	;volatile
  1733     0011  2813               	goto	u15_21
  1734     0012  2814               	goto	u15_20
  1735     0013                     u15_21:
  1736     0013  289A               	goto	i1l456
  1737     0014                     u15_20:
  1738     0014                     i1l1320:
  1739                           
  1740                           ;main.c: 128:         SSPIF = 0;
  1741     0014  1191               	bcf	17,3	;volatile
  1742                           
  1743                           ;main.c: 130:         if (SSPOV || WCOL) {
  1744     0015  0024               	movlb	4	; select bank4
  1745     0016  1B15               	btfsc	21,6	;volatile
  1746     0017  2819               	goto	u16_21
  1747     0018  281A               	goto	u16_20
  1748     0019                     u16_21:
  1749     0019  281E               	goto	i1l455
  1750     001A                     u16_20:
  1751     001A                     i1l1322:
  1752     001A  1F95               	btfss	21,7	;volatile
  1753     001B  281D               	goto	u17_21
  1754     001C  281E               	goto	u17_20
  1755     001D                     u17_21:
  1756     001D  2821               	goto	i1l453
  1757     001E                     u17_20:
  1758     001E                     i1l455:
  1759                           
  1760                           ;main.c: 131:             SSPOV = 0;
  1761     001E  1315               	bcf	21,6	;volatile
  1762                           
  1763                           ;main.c: 132:             WCOL = 0;
  1764     001F  1395               	bcf	21,7	;volatile
  1765                           
  1766                           ;main.c: 133:             return;
  1767     0020  289A               	goto	i1l456
  1768     0021                     i1l453:	
  1769                           ;main.c: 134:         }
  1770                           
  1771                           
  1772                           ;main.c: 136:         if (!D_nA && !R_nW)
  1773     0021  1A94               	btfsc	20,5	;volatile
  1774     0022  2824               	goto	u18_21
  1775     0023  2825               	goto	u18_20
  1776     0024                     u18_21:
  1777     0024  282F               	goto	i1l457
  1778     0025                     u18_20:
  1779     0025                     i1l1324:
  1780     0025  1914               	btfsc	20,2	;volatile
  1781     0026  2828               	goto	u19_21
  1782     0027  2829               	goto	u19_20
  1783     0028                     u19_21:
  1784     0028  282F               	goto	i1l457
  1785     0029                     u19_20:
  1786     0029                     i1l458:	
  1787                           ;main.c: 137:         {;main.c: 138:             do { LATAbits.LATA6 = 1; } while(0);
  1788                           
  1789     0029  0022               	movlb	2	; select bank2
  1790     002A  170C               	bsf	12,6	;volatile
  1791     002B                     i1l1326:
  1792     002B  0024               	movlb	4	; select bank4
  1793     002C  0811               	movf	17,w	;volatile
  1794     002D                     i1l1328:
  1795                           
  1796                           ;main.c: 140:             CKP = 1;
  1797     002D  1615               	bsf	21,4	;volatile
  1798                           
  1799                           ;main.c: 143:         } else if (!D_nA && R_nW)
  1800     002E  289A               	goto	i1l456
  1801     002F                     i1l457:
  1802     002F  1A94               	btfsc	20,5	;volatile
  1803     0030  2832               	goto	u20_21
  1804     0031  2833               	goto	u20_20
  1805     0032                     u20_21:
  1806     0032  2844               	goto	i1l461
  1807     0033                     u20_20:
  1808     0033                     i1l1330:
  1809     0033  1D14               	btfss	20,2	;volatile
  1810     0034  2836               	goto	u21_21
  1811     0035  2837               	goto	u21_20
  1812     0036                     u21_21:
  1813     0036  2844               	goto	i1l461
  1814     0037                     u21_20:
  1815     0037                     i1l462:	
  1816                           ;main.c: 144:         {;main.c: 145:             do { LATAbits.LATA5 = 1; } while(0);
  1817                           
  1818     0037  0022               	movlb	2	; select bank2
  1819     0038  168C               	bsf	12,5	;volatile
  1820     0039                     i1l1332:
  1821     0039  0024               	movlb	4	; select bank4
  1822     003A  0811               	movf	17,w	;volatile
  1823     003B                     i1l1334:
  1824                           
  1825                           ;main.c: 148:             if(ordre == 25){
  1826     003B  3019               	movlw	25
  1827     003C  0674               	xorwf	_ordre,w
  1828     003D  1D03               	btfss	3,2
  1829     003E  2840               	goto	u22_21
  1830     003F  2841               	goto	u22_20
  1831     0040                     u22_21:
  1832     0040  282D               	goto	i1l1328
  1833     0041                     u22_20:
  1834     0041                     i1l1336:
  1835                           
  1836                           ;main.c: 150:                 SSPBUF = 0x55;
  1837     0041  3055               	movlw	85
  1838     0042  0091               	movwf	17	;volatile
  1839     0043  282D               	goto	i1l1328
  1840     0044                     i1l461:
  1841     0044  1E94               	btfss	20,5	;volatile
  1842     0045  2847               	goto	u23_21
  1843     0046  2848               	goto	u23_20
  1844     0047                     u23_21:
  1845     0047  286D               	goto	i1l466
  1846     0048                     u23_20:
  1847     0048                     i1l1340:
  1848     0048  1914               	btfsc	20,2	;volatile
  1849     0049  284B               	goto	u24_21
  1850     004A  284C               	goto	u24_20
  1851     004B                     u24_21:
  1852     004B  286D               	goto	i1l466
  1853     004C                     u24_20:
  1854     004C                     i1l467:	
  1855                           ;main.c: 155:         {;main.c: 156:             do { LATAbits.LATA4 = 1; } while(0);
  1856                           
  1857     004C  0022               	movlb	2	; select bank2
  1858     004D  160C               	bsf	12,4	;volatile
  1859     004E                     i1l1342:
  1860                           
  1861                           ;main.c: 157:             unsigned char temp = SSPBUF;
  1862     004E  0024               	movlb	4	; select bank4
  1863     004F  0811               	movf	17,w	;volatile
  1864     0050  00FA               	movwf	I2C_Slave_Read_Write@temp_649
  1865     0051                     i1l1344:
  1866                           
  1867                           ;main.c: 159:             CKP = 1;
  1868     0051  1615               	bsf	21,4	;volatile
  1869     0052                     i1l1346:
  1870                           
  1871                           ;main.c: 160:             if (temp == 88) {
  1872     0052  3058               	movlw	88
  1873     0053  067A               	xorwf	I2C_Slave_Read_Write@temp_649,w
  1874     0054  1D03               	btfss	3,2
  1875     0055  2857               	goto	u25_21
  1876     0056  2858               	goto	u25_20
  1877     0057                     u25_21:
  1878     0057  285A               	goto	i1l1348
  1879     0058                     u25_20:
  1880     0058                     i1l470:	
  1881                           ;main.c: 162:                 do { LATAbits.LATA0 = 1; } while(0);
  1882                           
  1883     0058  0022               	movlb	2	; select bank2
  1884     0059  140C               	bsf	12,0	;volatile
  1885     005A                     i1l1348:
  1886                           
  1887                           ;main.c: 165:             if (temp == 77) {
  1888     005A  304D               	movlw	77
  1889     005B  067A               	xorwf	I2C_Slave_Read_Write@temp_649,w
  1890     005C  1D03               	btfss	3,2
  1891     005D  285F               	goto	u26_21
  1892     005E  2860               	goto	u26_20
  1893     005F                     u26_21:
  1894     005F  2862               	goto	i1l1350
  1895     0060                     u26_20:
  1896     0060                     i1l473:	
  1897                           ;main.c: 167:                 do { LATAbits.LATA1 = 1; } while(0);
  1898                           
  1899     0060  0022               	movlb	2	; select bank2
  1900     0061  148C               	bsf	12,1	;volatile
  1901     0062                     i1l1350:
  1902                           
  1903                           ;main.c: 170:             if (temp == 25) {
  1904     0062  3019               	movlw	25
  1905     0063  067A               	xorwf	I2C_Slave_Read_Write@temp_649,w
  1906     0064  1D03               	btfss	3,2
  1907     0065  2867               	goto	u27_21
  1908     0066  2868               	goto	u27_20
  1909     0067                     u27_21:
  1910     0067  289A               	goto	i1l456
  1911     0068                     u27_20:
  1912     0068                     i1l1352:
  1913                           
  1914                           ;main.c: 172:                 ordre = 25;
  1915     0068  3019               	movlw	25
  1916     0069  00F4               	movwf	_ordre
  1917     006A                     i1l1354:
  1918     006A  0022               	movlb	2	; select bank2
  1919     006B  148C               	bsf	12,1	;volatile
  1920     006C  289A               	goto	i1l456
  1921     006D                     i1l466:
  1922     006D  1E94               	btfss	20,5	;volatile
  1923     006E  2870               	goto	u28_21
  1924     006F  2871               	goto	u28_20
  1925     0070                     u28_21:
  1926     0070  289A               	goto	i1l465
  1927     0071                     u28_20:
  1928     0071                     i1l1356:
  1929     0071  1D14               	btfss	20,2	;volatile
  1930     0072  2874               	goto	u29_21
  1931     0073  2875               	goto	u29_20
  1932     0074                     u29_21:
  1933     0074  289A               	goto	i1l465
  1934     0075                     u29_20:
  1935     0075                     i1l480:	
  1936                           ;main.c: 177:         {;main.c: 178:             do { LATAbits.LATA2 = 1; } while(0);
  1937                           
  1938     0075  0022               	movlb	2	; select bank2
  1939     0076  150C               	bsf	12,2	;volatile
  1940     0077                     i1l1358:
  1941                           
  1942                           ;main.c: 179:             unsigned char temp = SSPBUF;
  1943     0077  0024               	movlb	4	; select bank4
  1944     0078  0811               	movf	17,w	;volatile
  1945     0079  00FB               	movwf	I2C_Slave_Read_Write@temp_650
  1946     007A                     i1l1360:
  1947                           
  1948                           ;main.c: 181:             CKP = 1;
  1949     007A  1615               	bsf	21,4	;volatile
  1950     007B                     i1l1362:
  1951                           
  1952                           ;main.c: 182:             if (temp == 88) {
  1953     007B  3058               	movlw	88
  1954     007C  067B               	xorwf	I2C_Slave_Read_Write@temp_650,w
  1955     007D  1D03               	btfss	3,2
  1956     007E  2880               	goto	u30_21
  1957     007F  2881               	goto	u30_20
  1958     0080                     u30_21:
  1959     0080  2886               	goto	i1l1366
  1960     0081                     u30_20:
  1961     0081                     i1l483:	
  1962                           ;main.c: 184:                 do { LATAbits.LATA0 = 1; } while(0);
  1963                           
  1964     0081  0022               	movlb	2	; select bank2
  1965     0082  140C               	bsf	12,0	;volatile
  1966     0083                     i1l1364:
  1967                           
  1968                           ;main.c: 185:                 SSPBUF = 0x22;
  1969     0083  3022               	movlw	34
  1970     0084  0024               	movlb	4	; select bank4
  1971     0085  0091               	movwf	17	;volatile
  1972     0086                     i1l1366:
  1973                           
  1974                           ;main.c: 189:             if (temp == 77) {
  1975     0086  304D               	movlw	77
  1976     0087  067B               	xorwf	I2C_Slave_Read_Write@temp_650,w
  1977     0088  1D03               	btfss	3,2
  1978     0089  288B               	goto	u31_21
  1979     008A  288C               	goto	u31_20
  1980     008B                     u31_21:
  1981     008B  2891               	goto	i1l1370
  1982     008C                     u31_20:
  1983     008C                     i1l486:	
  1984                           ;main.c: 191:                 do { LATAbits.LATA1 = 1; } while(0);
  1985                           
  1986     008C  0022               	movlb	2	; select bank2
  1987     008D  148C               	bsf	12,1	;volatile
  1988     008E                     i1l1368:
  1989                           
  1990                           ;main.c: 192:                 SSPBUF = 0x99;
  1991     008E  3099               	movlw	153
  1992     008F  0024               	movlb	4	; select bank4
  1993     0090  0091               	movwf	17	;volatile
  1994     0091                     i1l1370:
  1995                           
  1996                           ;main.c: 196:             if (temp == 25) {
  1997     0091  3019               	movlw	25
  1998     0092  067B               	xorwf	I2C_Slave_Read_Write@temp_650,w
  1999     0093  1D03               	btfss	3,2
  2000     0094  2896               	goto	u32_21
  2001     0095  2897               	goto	u32_20
  2002     0096                     u32_21:
  2003     0096  289A               	goto	i1l456
  2004     0097                     u32_20:
  2005     0097                     i1l489:	
  2006                           ;main.c: 198:                 do { LATAbits.LATA1 = 1; } while(0);
  2007                           
  2008     0097  0022               	movlb	2	; select bank2
  2009     0098  148C               	bsf	12,1	;volatile
  2010     0099  289A               	goto	i1l456
  2011     009A                     i1l465:
  2012     009A                     i1l456:
  2013     009A  107E               	bcf	int$flags,0	;clear compiler interrupt flag (level 1)
  2014     009B  0009               	retfie
  2015     009C                     __end_of_I2C_Slave_Read_Write:
  2016     007E                     btemp	set	126	;btemp
  2017     007E                     int$flags	set	126
  2018     007E                     wtemp0	set	126
  2019                           
  2020                           	psect	config
  2021                           
  2022                           ;Config register CONFIG1 @ 0x8007
  2023                           ;	Oscillator Selection
  2024                           ;	FOSC = INTOSC, INTOSC oscillator: I/O function on CLKIN pin
  2025                           ;	Watchdog Timer Enable
  2026                           ;	WDTE = OFF, WDT disabled
  2027                           ;	Power-up Timer Enable
  2028                           ;	PWRTE = OFF, PWRT disabled
  2029                           ;	MCLR Pin Function Select
  2030                           ;	MCLRE = ON, MCLR/VPP pin function is MCLR
  2031                           ;	Flash Program Memory Code Protection
  2032                           ;	CP = OFF, Program memory code protection is disabled
  2033                           ;	Data Memory Code Protection
  2034                           ;	CPD = OFF, Data memory code protection is disabled
  2035                           ;	Brown-out Reset Enable
  2036                           ;	BOREN = ON, Brown-out Reset enabled
  2037                           ;	Clock Out Enable
  2038                           ;	CLKOUTEN = OFF, CLKOUT function is disabled. I/O or oscillator function on the CLKOUT 
      +                          pin
  2039                           ;	Internal/External Switchover
  2040                           ;	IESO = ON, Internal/External Switchover mode is enabled
  2041                           ;	Fail-Safe Clock Monitor Enable
  2042                           ;	FCMEN = ON, Fail-Safe Clock Monitor is enabled
  2043     8007                     	org	32775
  2044     8007  3FE4               	dw	16356
  2045                           
  2046                           ;Config register CONFIG2 @ 0x8008
  2047                           ;	Flash Memory Self-Write Protection
  2048                           ;	WRT = OFF, Write protection off
  2049                           ;	Voltage Regulator Capacitor Enable
  2050                           ;	VCAPEN = OFF, All VCAP pin functionality is disabled
  2051                           ;	PLL Enable
  2052                           ;	PLLEN = ON, 4x PLL enabled
  2053                           ;	Stack Overflow/Underflow Reset Enable
  2054                           ;	STVREN = ON, Stack Overflow or Underflow will cause a Reset
  2055                           ;	Brown-out Reset Voltage Selection
  2056                           ;	BORV = LO, Brown-out Reset Voltage (Vbor), low trip point selected.
  2057                           ;	Low-Voltage Programming Enable
  2058                           ;	LVP = ON, Low-voltage programming enabled
  2059     8008                     	org	32776
  2060     8008  3FFF               	dw	16383

Data Sizes:
    Strings     0
    Constant    0
    Data        0
    BSS         18
    Persistent  32
    Stack       0

Auto Spaces:
    Space          Size  Autos    Used
    COMMON           14      2      12
    BANK0            80      1       9
    BANK1            80      0       0
    BANK2            80      0       0
    BANK3            80      0       0
    BANK4            80      0       0
    BANK5            80      0       0
    BANK6            80      0       0
    BANK7            80      0       0
    BANK8            80      0       0
    BANK9            80      0       0
    BANK10           80      0       0
    BANK11           80      0       0
    BANK12           48      0       0

Pointer List with Targets:

    I2C_SlaveAddrInterruptHandler	PTR FTN()void  size(2) Largest target is 1
		 -> I2C_SlaveDefAddrInterruptHandler(), NULL(), 

    I2C_SlaveBusColInterruptHandler	PTR FTN()void  size(2) Largest target is 1
		 -> I2C_SlaveDefBusColInterruptHandler(), NULL(), 

    I2C_SlaveRdInterruptHandler	PTR FTN()void  size(2) Largest target is 1
		 -> I2C_SlaveDefRdInterruptHandler(), NULL(), 

    I2C_SlaveWrColInterruptHandler	PTR FTN()void  size(2) Largest target is 1
		 -> I2C_SlaveDefWrColInterruptHandler(), NULL(), 

    I2C_SlaveWrInterruptHandler	PTR FTN()void  size(2) Largest target is 1
		 -> I2C_SlaveDefWrInterruptHandler(), NULL(), 

    MSSP_InterruptHandler	PTR FTN()void  size(2) Largest target is 1
		 -> I2C_Isr(), NULL(), 


Critical Paths under _main in COMMON

    None.

Critical Paths under _I2C_Slave_Read_Write in COMMON

    None.

Critical Paths under _main in BANK0

    _SYSTEM_Initialize->_I2C_Initialize

Critical Paths under _I2C_Slave_Read_Write in BANK0

    None.

Critical Paths under _main in BANK1

    None.

Critical Paths under _I2C_Slave_Read_Write in BANK1

    None.

Critical Paths under _main in BANK2

    None.

Critical Paths under _I2C_Slave_Read_Write in BANK2

    None.

Critical Paths under _main in BANK3

    None.

Critical Paths under _I2C_Slave_Read_Write in BANK3

    None.

Critical Paths under _main in BANK4

    None.

Critical Paths under _I2C_Slave_Read_Write in BANK4

    None.

Critical Paths under _main in BANK5

    None.

Critical Paths under _I2C_Slave_Read_Write in BANK5

    None.

Critical Paths under _main in BANK6

    None.

Critical Paths under _I2C_Slave_Read_Write in BANK6

    None.

Critical Paths under _main in BANK7

    None.

Critical Paths under _I2C_Slave_Read_Write in BANK7

    None.

Critical Paths under _main in BANK8

    None.

Critical Paths under _I2C_Slave_Read_Write in BANK8

    None.

Critical Paths under _main in BANK9

    None.

Critical Paths under _I2C_Slave_Read_Write in BANK9

    None.

Critical Paths under _main in BANK10

    None.

Critical Paths under _I2C_Slave_Read_Write in BANK10

    None.

Critical Paths under _main in BANK11

    None.

Critical Paths under _I2C_Slave_Read_Write in BANK11

    None.

Critical Paths under _main in BANK12

    None.

Critical Paths under _I2C_Slave_Read_Write in BANK12

    None.

Call Graph Tables:

 ---------------------------------------------------------------------------------
 (Depth) Function   	        Calls       Base Space   Used Autos Params    Refs
 ---------------------------------------------------------------------------------
 (0) _main                                                 0     0      0       0
                     _I2C_Slave_Init
                  _SYSTEM_Initialize
 ---------------------------------------------------------------------------------
 (1) _SYSTEM_Initialize                                    0     0      0       0
                     _I2C_Initialize
              _OSCILLATOR_Initialize
             _PIN_MANAGER_Initialize
                     _WDT_Initialize
 ---------------------------------------------------------------------------------
 (2) _WDT_Initialize                                       0     0      0       0
 ---------------------------------------------------------------------------------
 (2) _PIN_MANAGER_Initialize                               0     0      0       0
 ---------------------------------------------------------------------------------
 (2) _OSCILLATOR_Initialize                                0     0      0       0
 ---------------------------------------------------------------------------------
 (2) _I2C_Initialize                                       1     1      0       0
                                              0 BANK0      1     1      0
 ---------------------------------------------------------------------------------
 (1) _I2C_Slave_Init                                       0     0      0       0
 ---------------------------------------------------------------------------------
 Estimated maximum stack depth 2
 ---------------------------------------------------------------------------------
 (Depth) Function   	        Calls       Base Space   Used Autos Params    Refs
 ---------------------------------------------------------------------------------
 (3) _I2C_Slave_Read_Write                                 4     4      0      90
                                              0 COMMON     2     2      0
 ---------------------------------------------------------------------------------
 Estimated maximum stack depth 3
 ---------------------------------------------------------------------------------

 Call Graph Graphs:

 _main (ROOT)
   _I2C_Slave_Init
   _SYSTEM_Initialize
     _I2C_Initialize
     _OSCILLATOR_Initialize
     _PIN_MANAGER_Initialize
     _WDT_Initialize

 _I2C_Slave_Read_Write (ROOT)

 Address spaces:
Name               Size   Autos  Total    Cost      Usage
BIGRAM             3F0      0       0       0        0.0%
EEDATA             100      0       0       0        0.0%
NULL                 0      0       0       0        0.0%
CODE                 0      0       0       0        0.0%
BITCOMMON            E      0       0       1        0.0%
BITSFR0              0      0       0       1        0.0%
SFR0                 0      0       0       1        0.0%
COMMON               E      2       C       2       85.7%
BITSFR1              0      0       0       2        0.0%
SFR1                 0      0       0       2        0.0%
BITSFR2              0      0       0       3        0.0%
SFR2                 0      0       0       3        0.0%
STACK                0      0       0       3        0.0%
BITBANK0            50      0       0       4        0.0%
BITSFR3              0      0       0       4        0.0%
SFR3                 0      0       0       4        0.0%
BANK0               50      1       9       5       11.2%
BITSFR4              0      0       0       5        0.0%
SFR4                 0      0       0       5        0.0%
BITBANK1            50      0       0       6        0.0%
BITSFR5              0      0       0       6        0.0%
SFR5                 0      0       0       6        0.0%
BANK1               50      0       0       7        0.0%
BITSFR6              0      0       0       7        0.0%
SFR6                 0      0       0       7        0.0%
BITBANK2            50      0       0       8        0.0%
BITSFR7              0      0       0       8        0.0%
SFR7                 0      0       0       8        0.0%
BANK2               50      0       0       9        0.0%
BITSFR8              0      0       0       9        0.0%
SFR8                 0      0       0       9        0.0%
BITBANK3            50      0       0      10        0.0%
BITSFR9              0      0       0      10        0.0%
SFR9                 0      0       0      10        0.0%
BANK3               50      0       0      11        0.0%
BITSFR10             0      0       0      11        0.0%
SFR10                0      0       0      11        0.0%
BITBANK4            50      0       0      12        0.0%
BITSFR11             0      0       0      12        0.0%
SFR11                0      0       0      12        0.0%
BANK4               50      0       0      13        0.0%
BITSFR12             0      0       0      13        0.0%
SFR12                0      0       0      13        0.0%
BITBANK5            50      0       0      14        0.0%
BITSFR13             0      0       0      14        0.0%
SFR13                0      0       0      14        0.0%
BANK5               50      0       0      15        0.0%
BITSFR14             0      0       0      15        0.0%
SFR14                0      0       0      15        0.0%
BITBANK6            50      0       0      16        0.0%
BITSFR15             0      0       0      16        0.0%
SFR15                0      0       0      16        0.0%
BANK6               50      0       0      17        0.0%
BITSFR16             0      0       0      17        0.0%
SFR16                0      0       0      17        0.0%
BITBANK7            50      0       0      18        0.0%
BITSFR17             0      0       0      18        0.0%
SFR17                0      0       0      18        0.0%
BANK7               50      0       0      19        0.0%
BITSFR18             0      0       0      19        0.0%
SFR18                0      0       0      19        0.0%
BITSFR19             0      0       0      20        0.0%
SFR19                0      0       0      20        0.0%
ABS                  0      0      15      20        0.0%
BITBANK8            50      0       0      21        0.0%
BITSFR20             0      0       0      21        0.0%
SFR20                0      0       0      21        0.0%
BANK8               50      0       0      22        0.0%
BITSFR21             0      0       0      22        0.0%
SFR21                0      0       0      22        0.0%
BITBANK9            50      0       0      23        0.0%
BITSFR22             0      0       0      23        0.0%
SFR22                0      0       0      23        0.0%
BANK9               50      0       0      24        0.0%
BITSFR23             0      0       0      24        0.0%
SFR23                0      0       0      24        0.0%
BITBANK10           50      0       0      25        0.0%
BITSFR24             0      0       0      25        0.0%
SFR24                0      0       0      25        0.0%
BANK10              50      0       0      26        0.0%
BITSFR25             0      0       0      26        0.0%
SFR25                0      0       0      26        0.0%
BITBANK11           50      0       0      27        0.0%
BITSFR26             0      0       0      27        0.0%
SFR26                0      0       0      27        0.0%
BANK11              50      0       0      28        0.0%
BITSFR27             0      0       0      28        0.0%
SFR27                0      0       0      28        0.0%
BITBANK12           30      0       0      29        0.0%
BITSFR28             0      0       0      29        0.0%
SFR28                0      0       0      29        0.0%
BANK12              30      0       0      30        0.0%
BITSFR29             0      0       0      30        0.0%
SFR29                0      0       0      30        0.0%
BITSFR30             0      0       0      31        0.0%
SFR30                0      0       0      31        0.0%
DATA                 0      0      15      31        0.0%
BITSFR31             0      0       0      32        0.0%
SFR31                0      0       0      32        0.0%


Microchip Technology PIC Macro Assembler V2.46 build 20240104201356 
Symbol Table                                                                                   Sun Jul 28 15:08:50 2024

                       _SSPSTATbits 0214                                  l39 00D5  
                                l81 0114                                  l75 0108  
                                l84 0124                                  l78 010F  
                                u10 0114                                  u11 0113  
                               l411 00E3                                 l421 00E8  
                               l413 00E4                                 l431 00FB  
                               l423 00E9                                 l415 00E5  
                               l417 00E6                                 l409 00E1  
                               l419 00E7                                 l189 0120  
                               _CKP 10AC                                 _GIE 005F  
                               u430 00E1                                 u431 00E0  
                              l1100 00BB                                l1110 00D3  
                              l1102 00BE                                l1120 0109  
                              l1104 00CE                                l1130 00ED  
                              l1122 010C                                l1106 00D0  
                              l1140 00F8                                l1132 00F2  
                              l1124 010D                                l1108 00D1  
                              l1142 00F9                                l1134 00F3  
                              l1126 0121                                l1144 00FA  
                              l1136 00F5                                l1138 00F7  
                              l1098 00B5                                l1460 011F  
                              l1454 0115                                l1462 00FC  
                              l1456 0118                                l1458 011E  
                              l1466 00D6                                l1468 00DC  
                              _LATA 010C                                _LATB 010D  
                              _LATC 010E                                _LATD 010F  
                              _LATE 0110                                _PEIE 005E  
                              _PLLR 04D6                                _WCOL 10AF  
                              _D_nA 10A5                                _WPUB 020D  
                              _WPUE 0210                                _R_nW 10A2  
                              _main 00D6                                btemp 007E  
                              start 009C                _I2C_Slave_Read_Write 0004  
     __end_of_OSCILLATOR_Initialize 0115    _I2C_SlaveDefAddrInterruptHandler 0000  
                             ?_main 007A                               i1l440 0009  
                             i1l450 000E                               i1l442 000A  
                             i1l451 000F                               i1l444 000B  
                             i1l436 0006                               i1l461 0044  
                             i1l453 0021                               i1l470 0058  
                             i1l462 0037                               i1l446 000C  
                             i1l438 0008                               i1l455 001E  
                             i1l480 0075                               i1l456 009A  
                             i1l448 000D                               i1l465 009A  
                             i1l473 0060                               i1l457 002F  
                             i1l466 006D                               i1l458 0029  
                             i1l483 0081                               i1l467 004C  
                             i1l486 008C                               i1l489 0097  
                             u20_20 0033                               u20_21 0032  
                             u21_20 0037                               u21_21 0036  
                             u30_20 0081                               u22_20 0041  
                             u30_21 0080                               u22_21 0040  
                             u31_20 008C                               u23_20 0048  
                             u15_20 0014                               u31_21 008B  
                             u23_21 0047                               u15_21 0013  
                             u32_20 0097                               u24_20 004C  
                             u16_20 001A                               u32_21 0096  
                             u24_21 004B                               u16_21 0019  
                             u25_20 0058                               u17_20 001E  
                             u25_21 0057                               u17_21 001D  
                             u26_20 0060                               u18_20 0025  
                             u26_21 005F                               u18_21 0024  
                             u27_20 0068                               u19_20 0029  
                             u27_21 0067                               u19_21 0028  
                             u28_20 0071                               u28_21 0070  
                             u29_20 0075                               u29_21 0074  
                             _TRISA 008C                               _TRISB 008D  
                             _TRISC 008E                               _TRISD 008F  
                             _SSPIE 048B                               _TRISE 0090  
                             _SSPIF 008B                               _SSPOV 10AE  
                    _WDT_Initialize 0121                               _ordre 0074  
                             status 0003                               wtemp0 007E  
             ?_I2C_Slave_Read_Write 007A                     __initialization 009E  
                      __end_of_main 00ED                              ??_main 007C  
            __end_of_WDT_Initialize 0125         _I2C_SlaveRdInterruptHandler 0072  
       _I2C_SlaveWrInterruptHandler 0070                              _APFCON 011D  
                            _ANSELA 018C                              _ANSELB 018D  
                            _ANSELD 018F                              _ANSELE 0190  
                            _BORCON 0116                              i1l1320 0014  
                            i1l1330 0033                              i1l1322 001A  
                            i1l1340 0048                              i1l1332 0039  
                            i1l1324 0025                              i1l1350 0062  
                            i1l1342 004E                              i1l1334 003B  
                            i1l1326 002B                              i1l1360 007A  
                            i1l1352 0068                              i1l1344 0051  
                            i1l1336 0041                              i1l1328 002D  
                            i1l1370 0091                              i1l1362 007B  
                            i1l1354 006A                              i1l1346 0052  
                            i1l1364 0083                              i1l1356 0071  
                            i1l1348 005A                              i1l1366 0086  
                            i1l1358 0077                              i1l1368 008E  
                            _OSCCON 0099                              _WDTCON 0097  
                            _SSPADD 0212                              _TRISC3 0473  
                            _TRISC4 0474                              _SSPBUF 0211  
                            _SSPCON 0215                              _SSPMSK 0213  
                   ?_WDT_Initialize 007A                   _SYSTEM_Initialize 00FC  
           __end_of__initialization 00B1              ??_I2C_Slave_Read_Write 007A  
                ?_SYSTEM_Initialize 007A                      __pcstackCOMMON 007A  
               ??_SYSTEM_Initialize 007C                      _OPTION_REGbits 0095  
         __end_of_SYSTEM_Initialize 0109                          __pbssBANK0 0020  
                        __pmaintext 00D6                          __pintentry 0004  
                           _I2C_Isr 0000                             _OSCTUNE 0098  
                           _SSPCON1 0215                             _SSPCON2 0216  
                           _SSPSTAT 0214                      _I2C_Initialize 0115  
                           __ptext1 00FC                             __ptext2 0121  
                           __ptext3 00B5                             __ptext4 0109  
                           __ptext5 0115                             __ptext6 00ED  
             _OSCILLATOR_Initialize 0109        I2C_Slave_Read_Write@temp_650 007B  
      I2C_Slave_Read_Write@temp_649 007A            ??_PIN_MANAGER_Initialize 007C  
                           _request 0075                end_of_initialization 00B1  
                      _i2cSlaveAddr 0077                      _I2C_Slave_Init 00ED  
            __end_of_I2C_Initialize 0121                    ??_WDT_Initialize 007C  
                         _PORTDbits 000F              __end_of_I2C_Slave_Init 00FC  
                   ?_I2C_Initialize 007A                           _i2cRdData 0078  
            ?_OSCILLATOR_Initialize 007A                           _i2cWrData 0079  
               start_initialization 009E                     ?_I2C_Slave_Init 007A  
                       __pbssCOMMON 0070                           ___latbits 0003  
                     __pcstackBANK0 0028              _PIN_MANAGER_Initialize 00B5  
                          _LATAbits 010C                            _PIE1bits 0091  
                          _PIR1bits 0011   _I2C_SlaveDefWrColInterruptHandler 0000  
                  ??_I2C_Initialize 0028             ??_OSCILLATOR_Initialize 007C  
     _I2C_SlaveAddrInterruptHandler 0024  _I2C_SlaveDefBusColInterruptHandler 0000  
    _I2C_SlaveWrColInterruptHandler 0020                    ??_I2C_Slave_Init 007C  
                          int$flags 007E        __end_of_I2C_Slave_Read_Write 009C  
                          intlevel1 0000     _I2C_SlaveBusColInterruptHandler 0022  
           ?_PIN_MANAGER_Initialize 007A                       _i2cSlaveState 0076  
                       _SSPCON1bits 0215                         _SSPCON2bits 0216  
    __end_of_PIN_MANAGER_Initialize 00D6      _I2C_SlaveDefRdInterruptHandler 0000  
    _I2C_SlaveDefWrInterruptHandler 0000               _MSSP_InterruptHandler 0026  
